	.text
	.file	"llvm-link"
	.file	1 "/home/smc/work/remill/remill/Arch/Runtime/HyperCall.h"
	.file	2 "/home/smc/work/remill/remill-build/libraries/llvm/lib/clang/9.0.0/include/stdint.h"
	.file	3 "/home/smc/work/remill/remill/Arch/X86/Runtime/State.h"
	.file	4 "/usr/lib/gcc/x86_64-linux-gnu/7.5.0/../../../../include/c++/7.5.0/debug/debug.h"
	.file	5 "/usr/include/stdlib.h"
	.file	6 "/usr/lib/gcc/x86_64-linux-gnu/7.5.0/../../../../include/c++/7.5.0/bits/std_abs.h"
	.file	7 "/usr/lib/gcc/x86_64-linux-gnu/7.5.0/../../../../include/c++/7.5.0/cstdlib"
	.file	8 "/home/smc/work/remill/remill-build/libraries/llvm/lib/clang/9.0.0/include/stddef.h"
	.file	9 "/usr/lib/gcc/x86_64-linux-gnu/7.5.0/../../../../include/c++/7.5.0/bits/exception_ptr.h"
	.file	10 "/usr/lib/gcc/x86_64-linux-gnu/7.5.0/../../../../include/x86_64-linux-gnu/c++/7.5.0/bits/c++config.h"
	.file	11 "/usr/include/x86_64-linux-gnu/bits/types/__mbstate_t.h"
	.file	12 "/usr/include/x86_64-linux-gnu/bits/types/mbstate_t.h"
	.file	13 "/usr/lib/gcc/x86_64-linux-gnu/7.5.0/../../../../include/c++/7.5.0/cwchar"
	.file	14 "/usr/include/x86_64-linux-gnu/bits/types/wint_t.h"
	.file	15 "/usr/include/wchar.h"
	.file	16 "/usr/include/x86_64-linux-gnu/bits/types/__FILE.h"
	.file	17 "/usr/lib/gcc/x86_64-linux-gnu/7.5.0/../../../../include/c++/7.5.0/cstdint"
	.file	18 "/usr/lib/gcc/x86_64-linux-gnu/7.5.0/../../../../include/c++/7.5.0/ext/new_allocator.h"
	.file	19 "/usr/lib/gcc/x86_64-linux-gnu/7.5.0/../../../../include/c++/7.5.0/clocale"
	.file	20 "/usr/include/locale.h"
	.file	21 "/usr/include/ctype.h"
	.file	22 "/usr/lib/gcc/x86_64-linux-gnu/7.5.0/../../../../include/c++/7.5.0/cctype"
	.file	23 "/usr/include/x86_64-linux-gnu/bits/types/FILE.h"
	.file	24 "/usr/lib/gcc/x86_64-linux-gnu/7.5.0/../../../../include/c++/7.5.0/cstdio"
	.file	25 "/usr/include/x86_64-linux-gnu/bits/_G_config.h"
	.file	26 "/usr/include/stdio.h"
	.file	27 "/usr/include/x86_64-linux-gnu/bits/mathcalls.h"
	.file	28 "/usr/lib/gcc/x86_64-linux-gnu/7.5.0/../../../../include/c++/7.5.0/cmath"
	.file	29 "/usr/include/math.h"
	.file	30 "/usr/include/x86_64-linux-gnu/bits/fenv.h"
	.file	31 "/usr/lib/gcc/x86_64-linux-gnu/7.5.0/../../../../include/c++/7.5.0/fenv.h"
	.file	32 "/usr/include/fenv.h"
	.file	33 "/usr/lib/gcc/x86_64-linux-gnu/7.5.0/../../../../include/c++/7.5.0/cfenv"
	.globl	sub_400__mprotect       # -- Begin function sub_400__mprotect
	.p2align	4, 0x90
	.type	sub_400__mprotect,@function
sub_400__mprotect:                      # @sub_400__mprotect
.Lsub_400__mprotect$local:
.Lfunc_begin0:
	.cfi_sections .debug_frame
	.cfi_startproc
# %bb.0:                                # %block_400
	pushl	%ebp
	.cfi_def_cfa_offset 8
	.cfi_offset %ebp, -8
	movl	%esp, %ebp
	.cfi_def_cfa_register %ebp
	movl	16(%ebp), %edx
	movl	8(%ebp), %ecx
	movl	seg_1fd0__got+12, %eax
	movl	%eax, 2472(%ecx)
	popl	%ebp
	.cfi_def_cfa %esp, 4
	jmp	ext_2010_mprotect       # TAILCALL
.Lfunc_end0:
	.size	sub_400__mprotect, .Lfunc_end0-sub_400__mprotect
	.cfi_endproc
                                        # -- End function
	.globl	sub_580_frame_dummy     # -- Begin function sub_580_frame_dummy
	.p2align	4, 0x90
	.type	sub_580_frame_dummy,@function
sub_580_frame_dummy:                    # @sub_580_frame_dummy
.Lsub_580_frame_dummy$local:
.Lfunc_begin1:
	.cfi_startproc
# %bb.0:                                # %block_580
	pushl	%ebp
	.cfi_def_cfa_offset 8
	.cfi_offset %ebp, -8
	movl	%esp, %ebp
	.cfi_def_cfa_register %ebp
	pushl	%edi
	pushl	%esi
	.cfi_offset %esi, -16
	.cfi_offset %edi, -12
	movl	16(%ebp), %eax
	movl	8(%ebp), %ecx
	movl	2328(%ecx), %edx
	movl	2120(%ecx), %esi
	movl	2312(%ecx), %edi
	movl	%edx, -4(%edi,%esi)
	movl	%edi, 2312(%ecx)
	movl	-4(%edi,%esi), %edx
	movl	%edx, 2328(%ecx)
	movl	$-160, %edx
	addl	12(%ebp), %edx
	subl	$4, %esp
	pushl	%eax
	pushl	%edx
	pushl	%ecx
	calll	.Lsub_4e0_register_tm_clones$local
	addl	$16, %esp
	popl	%esi
	popl	%edi
	popl	%ebp
	.cfi_def_cfa %esp, 4
	retl
.Lfunc_end1:
	.size	sub_580_frame_dummy, .Lfunc_end1-sub_580_frame_dummy
	.cfi_endproc
                                        # -- End function
	.globl	sub_6a2___x86_get_pc_thunk_ax # -- Begin function sub_6a2___x86_get_pc_thunk_ax
	.p2align	4, 0x90
	.type	sub_6a2___x86_get_pc_thunk_ax,@function
sub_6a2___x86_get_pc_thunk_ax:          # @sub_6a2___x86_get_pc_thunk_ax
.Lsub_6a2___x86_get_pc_thunk_ax$local:
.Lfunc_begin2:
	.cfi_startproc
# %bb.0:                                # %block_6a2
	pushl	%ebp
	.cfi_def_cfa_offset 8
	.cfi_offset %ebp, -8
	movl	%esp, %ebp
	.cfi_def_cfa_register %ebp
	pushl	%edi
	pushl	%esi
	.cfi_offset %esi, -16
	.cfi_offset %edi, -12
	movl	16(%ebp), %eax
	movl	8(%ebp), %ecx
	movl	2120(%ecx), %edx
	movl	2312(%ecx), %esi
	movl	(%esi), %edi
	movl	%edi, 2216(%ecx)
	movl	(%edx,%esi), %edx
	movl	%edx, 2472(%ecx)
	addl	$4, %esi
	movl	%esi, 2312(%ecx)
	popl	%esi
	popl	%edi
	popl	%ebp
	.cfi_def_cfa %esp, 4
	retl
.Lfunc_end2:
	.size	sub_6a2___x86_get_pc_thunk_ax, .Lfunc_end2-sub_6a2___x86_get_pc_thunk_ax
	.cfi_endproc
                                        # -- End function
	.globl	sub_482                 # -- Begin function sub_482
	.p2align	4, 0x90
	.type	sub_482,@function
sub_482:                                # @sub_482
.Lsub_482$local:
.Lfunc_begin3:
	.cfi_startproc
# %bb.0:                                # %block_482
	pushl	%ebp
	.cfi_def_cfa_offset 8
	.cfi_offset %ebp, -8
	movl	%esp, %ebp
	.cfi_def_cfa_register %ebp
	pushl	%edi
	pushl	%esi
	.cfi_offset %esi, -16
	.cfi_offset %edi, -12
	movl	16(%ebp), %eax
	movl	8(%ebp), %ecx
	movl	2120(%ecx), %edx
	movl	2312(%ecx), %esi
	movl	(%esi), %edi
	movl	%edi, 2232(%ecx)
	movl	(%edx,%esi), %edx
	movl	%edx, 2472(%ecx)
	addl	$4, %esi
	movl	%esi, 2312(%ecx)
	popl	%esi
	popl	%edi
	popl	%ebp
	.cfi_def_cfa %esp, 4
	retl
.Lfunc_end3:
	.size	sub_482, .Lfunc_end3-sub_482
	.cfi_endproc
                                        # -- End function
	.globl	sub_530___do_global_dtors_aux # -- Begin function sub_530___do_global_dtors_aux
	.p2align	4, 0x90
	.type	sub_530___do_global_dtors_aux,@function
sub_530___do_global_dtors_aux:          # @sub_530___do_global_dtors_aux
.Lsub_530___do_global_dtors_aux$local:
.Lfunc_begin4:
	.cfi_startproc
# %bb.0:                                # %block_530
	pushl	%ebp
	.cfi_def_cfa_offset 8
	.cfi_offset %ebp, -8
	movl	%esp, %ebp
	.cfi_def_cfa_register %ebp
	pushl	%ebx
	pushl	%edi
	pushl	%esi
	subl	$28, %esp
	.cfi_offset %esi, -20
	.cfi_offset %edi, -16
	.cfi_offset %ebx, -12
	movl	12(%ebp), %eax
	movl	8(%ebp), %esi
	movl	2328(%esi), %ecx
	movl	2120(%esi), %edx
	movl	2312(%esi), %edi
	movl	%ecx, -4(%edx,%edi)
	leal	-4(%edi), %ecx
	movl	%ecx, 2328(%esi)
	movl	2232(%esi), %ecx
	movl	%ecx, -8(%edi,%edx)
	leal	-160(%eax), %ecx
	addl	$9, %eax
	movl	%eax, -12(%edx,%edi)
	addl	$-12, %edi
	movl	%edi, 2312(%esi)
	movl	16(%ebp), %eax
	subl	$4, %esp
	pushl	%eax
	pushl	%ecx
	pushl	%esi
	calll	.Lsub_490___x86_get_pc_thunk_bx$local
	addl	$16, %esp
	movl	%eax, %edi
	movl	2232(%esi), %ecx
	movl	2312(%esi), %eax
	movl	%eax, -28(%ebp)         # 4-byte Spill
	leal	6807(%ecx), %eax
	movl	%eax, 2232(%esi)
	movl	%ecx, -24(%ebp)         # 4-byte Spill
	movzbl	6863(%ecx), %eax
	movl	%eax, %ecx
	shrl	%ecx
	andl	$-43, %ecx
	movl	%eax, %edx
	subl	%ecx, %edx
	movl	%edx, %ecx
	andl	$858993459, %ecx        # imm = 0x33333333
	shrl	$2, %edx
	andl	$858993459, %edx        # imm = 0x33333333
	addl	%ecx, %edx
	movl	%edx, %ecx
	shrl	$4, %ecx
	addl	%edx, %ecx
	andl	$17764111, %ecx         # imm = 0x10F0F0F
	imull	$16843009, %ecx, %ecx   # imm = 0x1010101
	shrl	$24, %ecx
	notb	%cl
	andb	$1, %cl
	movl	%eax, %edx
	shrb	$7, %dl
	testl	%eax, %eax
	movl	$18, %ebx
	je	.LBB4_2
# %bb.1:                                # %block_530
	movl	$57, %ebx
.LBB4_2:                                # %block_530
	addl	2472(%esi), %ebx
	testl	%eax, %eax
	movb	$0, 2065(%esi)
	movb	%cl, 2067(%esi)
	movb	$0, 2069(%esi)
	sete	2071(%esi)
	movb	%dl, 2073(%esi)
	movb	$0, 2077(%esi)
	jne	.LBB4_7
# %bb.3:                                # %block_54b
	movl	-24(%ebp), %eax         # 4-byte Reload
	movl	6839(%eax), %edx
	movzbl	%dl, %eax
	movl	%eax, %ecx
	shrl	%ecx
	andl	$-43, %ecx
	subl	%ecx, %eax
	movl	%eax, %ecx
	andl	$858993459, %ecx        # imm = 0x33333333
	shrl	$2, %eax
	andl	$858993459, %eax        # imm = 0x33333333
	addl	%ecx, %eax
	movl	%eax, %ecx
	shrl	$4, %ecx
	addl	%eax, %ecx
	andl	$17764111, %ecx         # imm = 0x10F0F0F
	imull	$16843009, %ecx, %ecx   # imm = 0x1010101
	shrl	$24, %ecx
	notb	%cl
	andb	$1, %cl
	movl	%edx, %eax
	shrl	$31, %eax
	testl	%edx, %edx
	movl	$27, -16(%ebp)          # 4-byte Folded Spill
	je	.LBB4_5
# %bb.4:                                # %block_54b
	movl	$10, -16(%ebp)          # 4-byte Folded Spill
.LBB4_5:                                # %block_54b
	addl	%ebx, -16(%ebp)         # 4-byte Folded Spill
	testl	%edx, %edx
	movl	%edx, 2216(%esi)
	movb	$0, 2065(%esi)
	movb	%cl, 2067(%esi)
	sete	2071(%esi)
	movb	%al, 2073(%esi)
	movl	-28(%ebp), %eax         # 4-byte Reload
	leal	-4(%eax), %ebx
	movb	$0, 2077(%esi)
	movb	$0, 2069(%esi)
	je	.LBB4_6
# %bb.8:                                # %block_555
	movl	%ebx, %ecx
	shrl	$31, %ecx
	cmpl	$12, %ebx
	setb	2065(%esi)
	leal	-16(%eax), %eax
	movl	%edi, -20(%ebp)         # 4-byte Spill
	movzbl	%al, %edi
	movl	%edi, %edx
	shrl	%edx
	andl	$-43, %edx
	subl	%edx, %edi
	movl	%edi, %edx
	andl	$858993459, %edx        # imm = 0x33333333
	shrl	$2, %edi
	andl	$858993459, %edi        # imm = 0x33333333
	addl	%edx, %edi
	movl	%edi, %edx
	shrl	$4, %edx
	addl	%edi, %edx
	andl	$17764111, %edx         # imm = 0x10F0F0F
	imull	$16843009, %edx, %edx   # imm = 0x1010101
	shrl	$24, %edx
	notb	%dl
	andb	$1, %dl
	movb	%dl, 2067(%esi)
	xorl	%eax, %ebx
	shrb	$4, %bl
	andb	$1, %bl
	movb	%bl, 2069(%esi)
	testl	%eax, %eax
	sete	2071(%esi)
	shrl	$31, %eax
	movb	%al, 2073(%esi)
	xorl	%ecx, %eax
	addl	%ecx, %eax
	cmpl	$2, %eax
	sete	2077(%esi)
	movl	-24(%ebp), %eax         # 4-byte Reload
	movl	6859(%eax), %eax
	movl	2120(%esi), %ecx
	movl	-28(%ebp), %edi         # 4-byte Reload
	movl	%eax, -20(%edi,%ecx)
	movl	-16(%ebp), %edx         # 4-byte Reload
	leal	-277(%edx), %eax
	addl	$14, %edx
	movl	%edx, -24(%ecx,%edi)
	addl	$-24, %edi
	movl	%edi, 2312(%esi)
	subl	$4, %esp
	pushl	-20(%ebp)               # 4-byte Folded Reload
	pushl	%eax
	pushl	%esi
	calll	.Lsub_440____cxa_finalize$local
	addl	$16, %esp
	movl	%eax, -20(%ebp)         # 4-byte Spill
	movl	2312(%esi), %ecx
	movl	2472(%esi), %eax
	addl	$3, %eax
	movl	%eax, -16(%ebp)         # 4-byte Spill
	movl	%ecx, %ebx
	addl	$16, %ebx
	setb	%dh
	cmpl	$-17, %ecx
	seta	%dl
	movzbl	%bl, %eax
	movl	%eax, %edi
	shrl	%edi
	andl	$-43, %edi
	subl	%edi, %eax
	movl	%eax, %edi
	andl	$858993459, %edi        # imm = 0x33333333
	shrl	$2, %eax
	andl	$858993459, %eax        # imm = 0x33333333
	addl	%edi, %eax
	movl	%eax, %edi
	shrl	$4, %edi
	addl	%eax, %edi
	orb	%dh, %dl
	movb	%dl, 2065(%esi)
	andl	$17764111, %edi         # imm = 0x10F0F0F
	imull	$16843009, %edi, %eax   # imm = 0x1010101
	movl	-20(%ebp), %edi         # 4-byte Reload
	shrl	$24, %eax
	notb	%al
	andb	$1, %al
	movb	%al, 2067(%esi)
	movl	%ecx, %eax
	xorl	%ebx, %eax
	notb	%al
	shrb	$4, %al
	andb	$1, %al
	movb	%al, 2069(%esi)
	testl	%ebx, %ebx
	sete	2071(%esi)
	movl	%ebx, %eax
	shrl	$31, %eax
	movb	%al, 2073(%esi)
	shrl	$31, %ecx
	xorl	%eax, %ecx
	addl	%eax, %ecx
	cmpl	$2, %ecx
	sete	2077(%esi)
.LBB4_6:                                # %block_566
	movl	-16(%ebp), %edx         # 4-byte Reload
	leal	-198(%edx), %eax
	addl	$5, %edx
	movl	2120(%esi), %ecx
	movl	%edx, -4(%ecx,%ebx)
	addl	$-4, %ebx
	movl	%ebx, 2312(%esi)
	subl	$4, %esp
	pushl	%edi
	pushl	%eax
	pushl	%esi
	calll	.Lsub_4a0_deregister_tm_clones$local
	addl	$16, %esp
	movl	%eax, %edi
	movl	2232(%esi), %eax
	movb	$1, 56(%eax)
.LBB4_7:                                # %block_572
	movl	2120(%esi), %eax
	movl	2328(%esi), %ecx
	movl	-4(%ecx), %edx
	movl	%edx, 2232(%esi)
	movl	(%eax,%ecx), %edx
	movl	%edx, 2328(%esi)
	movl	4(%eax,%ecx), %eax
	movl	%eax, 2472(%esi)
	addl	$8, %ecx
	movl	%ecx, 2312(%esi)
	movl	%edi, %eax
	addl	$28, %esp
	popl	%esi
	popl	%edi
	popl	%ebx
	popl	%ebp
	.cfi_def_cfa %esp, 4
	retl
.Lfunc_end4:
	.size	sub_530___do_global_dtors_aux, .Lfunc_end4-sub_530___do_global_dtors_aux
	.cfi_endproc
                                        # -- End function
	.globl	sub_448____gmon_start__ # -- Begin function sub_448____gmon_start__
	.p2align	4, 0x90
	.type	sub_448____gmon_start__,@function
sub_448____gmon_start__:                # @sub_448____gmon_start__
.Lsub_448____gmon_start__$local:
.Lfunc_begin5:
	.cfi_startproc
# %bb.0:                                # %block_448
	pushl	%ebp
	.cfi_def_cfa_offset 8
	.cfi_offset %ebp, -8
	movl	%esp, %ebp
	.cfi_def_cfa_register %ebp
	subl	$8, %esp
	movl	16(%ebp), %ecx
	movl	8(%ebp), %eax
	movl	2232(%eax), %edx
	movl	__gmon_start__(%edx), %edx
	movl	%edx, 2472(%eax)
	subl	$4, %esp
	cmpl	$1102, %edx             # imm = 0x44E
	jne	.LBB5_3
# %bb.1:                                # %block_44e
	pushl	%ecx
	pushl	$1104                   # imm = 0x450
	pushl	%eax
	calll	.Lsub_450__start$local
	jmp	.LBB5_2
.LBB5_3:
	pushl	%ecx
	pushl	%edx
	pushl	%eax
	calll	__remill_jump
.LBB5_2:                                # %block_44e
	addl	$24, %esp
	popl	%ebp
	.cfi_def_cfa %esp, 4
	retl
.Lfunc_end5:
	.size	sub_448____gmon_start__, .Lfunc_end5-sub_448____gmon_start__
	.cfi_endproc
                                        # -- End function
	.globl	sub_410__printf         # -- Begin function sub_410__printf
	.p2align	4, 0x90
	.type	sub_410__printf,@function
sub_410__printf:                        # @sub_410__printf
.Lsub_410__printf$local:
.Lfunc_begin6:
	.cfi_startproc
# %bb.0:                                # %block_410
	pushl	%ebp
	.cfi_def_cfa_offset 8
	.cfi_offset %ebp, -8
	movl	%esp, %ebp
	.cfi_def_cfa_register %ebp
	movl	16(%ebp), %edx
	movl	8(%ebp), %ecx
	movl	seg_1fd0__got+16, %eax
	movl	%eax, 2472(%ecx)
	popl	%ebp
	.cfi_def_cfa %esp, 4
	jmp	ext_2014_printf         # TAILCALL
.Lfunc_end6:
	.size	sub_410__printf, .Lfunc_end6-sub_410__printf
	.cfi_endproc
                                        # -- End function
	.globl	sub_649_change_page_permissions_of_address # -- Begin function sub_649_change_page_permissions_of_address
	.p2align	4, 0x90
	.type	sub_649_change_page_permissions_of_address,@function
sub_649_change_page_permissions_of_address: # @sub_649_change_page_permissions_of_address
.Lsub_649_change_page_permissions_of_address$local:
.Lfunc_begin7:
	.cfi_startproc
# %bb.0:                                # %block_649
	pushl	%ebp
	.cfi_def_cfa_offset 8
	.cfi_offset %ebp, -8
	movl	%esp, %ebp
	.cfi_def_cfa_register %ebp
	pushl	%ebx
	pushl	%edi
	pushl	%esi
	subl	$28, %esp
	.cfi_offset %esi, -20
	.cfi_offset %edi, -16
	.cfi_offset %ebx, -12
	movl	8(%ebp), %esi
	movl	2328(%esi), %edx
	movl	2120(%esi), %ecx
	movl	2312(%esi), %eax
	leal	-4(%eax), %edi
	movl	%edx, -4(%ecx,%eax)
	movl	%edi, 2328(%esi)
	movl	2232(%esi), %edx
	leal	-8(%eax), %edi
	movl	%edx, -8(%ecx,%eax)
	leal	-28(%eax), %ebx
	cmpl	$20, %edi
	setb	2065(%esi)
	movzbl	%bl, %esi
	movl	%esi, %edx
	shrl	%edx
	andl	$-43, %edx
	subl	%edx, %esi
	movl	%esi, %edx
	andl	$858993459, %edx        # imm = 0x33333333
	shrl	$2, %esi
	andl	$858993459, %esi        # imm = 0x33333333
	addl	%edx, %esi
	movl	%esi, %edx
	shrl	$4, %edx
	addl	%esi, %edx
	andl	$17764111, %edx         # imm = 0x10F0F0F
	imull	$16843009, %edx, %edx   # imm = 0x1010101
	shrl	$24, %edx
	notb	%dl
	andb	$1, %dl
	movl	8(%ebp), %esi
	movb	%dl, 2067(%esi)
	movl	%edi, %edx
	xorl	%ebx, %edx
	notb	%dl
	shrb	$4, %dl
	andb	$1, %dl
	movb	%dl, 2069(%esi)
	testl	%ebx, %ebx
	sete	2071(%esi)
	shrl	$31, %ebx
	movb	%bl, 2073(%esi)
	shrl	$31, %edi
	xorl	%edi, %ebx
	addl	%edi, %ebx
	movl	12(%ebp), %edx
	cmpl	$2, %ebx
	movl	%esi, %edi
	sete	2077(%esi)
	leal	93(%edx), %esi
	addl	$12, %edx
	movl	%edx, -32(%ecx,%eax)
	addl	$-32, %eax
	movl	%eax, 2312(%edi)
	movl	16(%ebp), %eax
	subl	$4, %esp
	pushl	%eax
	pushl	%esi
	pushl	%edi
	calll	.Lsub_6a6___x86_get_pc_thunk_cx$local
	addl	$16, %esp
	movl	%eax, -16(%ebp)         # 4-byte Spill
	movl	2328(%edi), %edx
	movl	2472(%edi), %eax
	movl	%eax, -28(%ebp)         # 4-byte Spill
	movl	$6523, %eax             # imm = 0x197B
	addl	2248(%edi), %eax
	movl	%eax, -24(%ebp)         # 4-byte Spill
	movl	%eax, 2248(%edi)
	movl	$4096, -12(%edx)        # imm = 0x1000
	movl	8(%edx), %eax
	movl	%eax, %ecx
	andl	$4095, %ecx             # imm = 0xFFF
	movl	%ecx, 2264(%edi)
	andl	$-4096, %eax            # imm = 0xF000
	movl	%eax, 8(%edx)
	movl	-12(%edx), %eax
	movl	%eax, -20(%ebp)         # 4-byte Spill
	movl	%eax, 2216(%edi)
	movl	2312(%edi), %eax
	movl	%edi, %ecx
	movl	%eax, %ebx
	subl	$4, %ebx
	movl	2120(%edi), %edi
	setb	2065(%ecx)
	sete	2071(%ecx)
	movzbl	%bl, %ecx
	movl	%ecx, %esi
	shrl	%esi
	andl	$-43, %esi
	subl	%esi, %ecx
	movl	%ecx, %esi
	andl	$858993459, %esi        # imm = 0x33333333
	shrl	$2, %ecx
	andl	$858993459, %ecx        # imm = 0x33333333
	addl	%esi, %ecx
	movl	%ecx, %esi
	shrl	$4, %esi
	addl	%ecx, %esi
	andl	$17764111, %esi         # imm = 0x10F0F0F
	imull	$16843009, %esi, %ecx   # imm = 0x1010101
	shrl	$24, %ecx
	notb	%cl
	andb	$1, %cl
	movl	8(%ebp), %esi
	movb	%cl, 2067(%esi)
	movl	%ebx, %ecx
	xorl	%eax, %ecx
	shrb	$4, %cl
	andb	$1, %cl
	movb	%cl, 2069(%esi)
	shrl	$31, %ebx
	movb	%bl, 2073(%esi)
	movl	%eax, %ecx
	shrl	$31, %ecx
	xorl	%ecx, %ebx
	addl	%ecx, %ebx
	cmpl	$2, %ebx
	sete	2077(%esi)
	movl	$7, -8(%eax,%edi)
	movl	-20(%ebp), %ecx         # 4-byte Reload
	movl	%ecx, -12(%eax,%edi)
	movl	8(%edx), %ecx
	movl	%ecx, -16(%eax,%edi)
	movl	-24(%ebp), %ecx         # 4-byte Reload
	movl	%ecx, 2232(%esi)
	movl	-28(%ebp), %edx         # 4-byte Reload
	leal	-597(%edx), %ecx
	addl	$52, %edx
	movl	%edx, -20(%edi,%eax)
	addl	$-20, %eax
	movl	%eax, 2312(%esi)
	subl	$4, %esp
	pushl	-16(%ebp)               # 4-byte Folded Reload
	pushl	%ecx
	pushl	%esi
	calll	.Lsub_400__mprotect$local
	addl	$16, %esp
	movl	%eax, -16(%ebp)         # 4-byte Spill
	movl	2216(%esi), %edx
	leal	1(%edx), %eax
	cmpl	$-1, %edx
	setne	2065(%esi)
	movzbl	%al, %esi
	movl	%esi, %edi
	shrl	%edi
	andl	$-43, %edi
	subl	%edi, %esi
	movl	%esi, %edi
	andl	$858993459, %edi        # imm = 0x33333333
	shrl	$2, %esi
	andl	$858993459, %esi        # imm = 0x33333333
	addl	%edi, %esi
	movl	%esi, %edi
	shrl	$4, %edi
	addl	%esi, %edi
	movl	%edx, %ebx
	xorl	%eax, %ebx
	shrl	$31, %eax
	movl	%edx, %esi
	shrl	$31, %esi
	movl	%eax, %ecx
	xorl	%esi, %ecx
	xorl	$1, %esi
	addl	%ecx, %esi
	andl	$17764111, %edi         # imm = 0x10F0F0F
	imull	$16843009, %edi, %ecx   # imm = 0x1010101
	shrl	$24, %ecx
	notb	%cl
	andb	$1, %cl
	notb	%bl
	shrb	$4, %bl
	andb	$1, %bl
	cmpl	$2, %esi
	movl	8(%ebp), %esi
	sete	2077(%esi)
	incl	%edx
	movb	%cl, 2067(%esi)
	movb	%bl, 2069(%esi)
	sete	2071(%esi)
	movb	%al, 2073(%esi)
	jne	.LBB7_3
# %bb.1:                                # %block_691
	movl	$-1, 2216(%esi)
	jmp	.LBB7_2
.LBB7_3:                                # %block_698
	movl	$0, 2216(%esi)
.LBB7_2:                                # %block_69d
	movl	2120(%esi), %eax
	movl	2328(%esi), %ecx
	movl	-4(%ecx), %edx
	movl	%edx, 2232(%esi)
	movl	(%eax,%ecx), %edx
	movl	%edx, 2328(%esi)
	movl	4(%eax,%ecx), %eax
	movl	%eax, 2472(%esi)
	addl	$8, %ecx
	movl	%ecx, 2312(%esi)
	movl	-16(%ebp), %eax         # 4-byte Reload
	addl	$28, %esp
	popl	%esi
	popl	%edi
	popl	%ebx
	popl	%ebp
	.cfi_def_cfa %esp, 4
	retl
.Lfunc_end7:
	.size	sub_649_change_page_permissions_of_address, .Lfunc_end7-sub_649_change_page_permissions_of_address
	.cfi_endproc
                                        # -- End function
	.globl	sub_710___libc_csu_fini # -- Begin function sub_710___libc_csu_fini
	.p2align	4, 0x90
	.type	sub_710___libc_csu_fini,@function
sub_710___libc_csu_fini:                # @sub_710___libc_csu_fini
.Lsub_710___libc_csu_fini$local:
.Lfunc_begin8:
	.cfi_startproc
# %bb.0:                                # %block_710
	pushl	%ebp
	.cfi_def_cfa_offset 8
	.cfi_offset %ebp, -8
	movl	%esp, %ebp
	.cfi_def_cfa_register %ebp
	pushl	%esi
	.cfi_offset %esi, -12
	movl	16(%ebp), %eax
	movl	8(%ebp), %ecx
	movl	2120(%ecx), %edx
	movl	2312(%ecx), %esi
	movl	(%edx,%esi), %edx
	movl	%edx, 2472(%ecx)
	addl	$4, %esi
	movl	%esi, 2312(%ecx)
	popl	%esi
	popl	%ebp
	.cfi_def_cfa %esp, 4
	retl
.Lfunc_end8:
	.size	sub_710___libc_csu_fini, .Lfunc_end8-sub_710___libc_csu_fini
	.cfi_endproc
                                        # -- End function
	.globl	sub_420____libc_start_main # -- Begin function sub_420____libc_start_main
	.p2align	4, 0x90
	.type	sub_420____libc_start_main,@function
sub_420____libc_start_main:             # @sub_420____libc_start_main
.Lsub_420____libc_start_main$local:
.Lfunc_begin9:
	.cfi_startproc
# %bb.0:                                # %block_420
	pushl	%ebp
	.cfi_def_cfa_offset 8
	.cfi_offset %ebp, -8
	movl	%esp, %ebp
	.cfi_def_cfa_register %ebp
	movl	16(%ebp), %edx
	movl	8(%ebp), %ecx
	movl	seg_1fd0__got+20, %eax
	movl	%eax, 2472(%ecx)
	popl	%ebp
	.cfi_def_cfa %esp, 4
	jmp	ext_201c___libc_start_main # TAILCALL
.Lfunc_end9:
	.size	sub_420____libc_start_main, .Lfunc_end9-sub_420____libc_start_main
	.cfi_endproc
                                        # -- End function
	.globl	sub_6a6___x86_get_pc_thunk_cx # -- Begin function sub_6a6___x86_get_pc_thunk_cx
	.p2align	4, 0x90
	.type	sub_6a6___x86_get_pc_thunk_cx,@function
sub_6a6___x86_get_pc_thunk_cx:          # @sub_6a6___x86_get_pc_thunk_cx
.Lsub_6a6___x86_get_pc_thunk_cx$local:
.Lfunc_begin10:
	.cfi_startproc
# %bb.0:                                # %block_6a6
	pushl	%ebp
	.cfi_def_cfa_offset 8
	.cfi_offset %ebp, -8
	movl	%esp, %ebp
	.cfi_def_cfa_register %ebp
	pushl	%edi
	pushl	%esi
	.cfi_offset %esi, -16
	.cfi_offset %edi, -12
	movl	16(%ebp), %eax
	movl	8(%ebp), %ecx
	movl	2120(%ecx), %edx
	movl	2312(%ecx), %esi
	movl	(%esi), %edi
	movl	%edi, 2248(%ecx)
	movl	(%edx,%esi), %edx
	movl	%edx, 2472(%ecx)
	addl	$4, %esi
	movl	%esi, 2312(%ecx)
	popl	%esi
	popl	%edi
	popl	%ebp
	.cfi_def_cfa %esp, 4
	retl
.Lfunc_end10:
	.size	sub_6a6___x86_get_pc_thunk_cx, .Lfunc_end10-sub_6a6___x86_get_pc_thunk_cx
	.cfi_endproc
                                        # -- End function
	.globl	sub_430__write          # -- Begin function sub_430__write
	.p2align	4, 0x90
	.type	sub_430__write,@function
sub_430__write:                         # @sub_430__write
.Lsub_430__write$local:
.Lfunc_begin11:
	.cfi_startproc
# %bb.0:                                # %block_430
	pushl	%ebp
	.cfi_def_cfa_offset 8
	.cfi_offset %ebp, -8
	movl	%esp, %ebp
	.cfi_def_cfa_register %ebp
	movl	16(%ebp), %edx
	movl	8(%ebp), %ecx
	movl	seg_1fd0__got+24, %eax
	movl	%eax, 2472(%ecx)
	popl	%ebp
	.cfi_def_cfa %esp, 4
	jmp	ext_2020_write          # TAILCALL
.Lfunc_end11:
	.size	sub_430__write, .Lfunc_end11-sub_430__write
	.cfi_endproc
                                        # -- End function
	.globl	sub_440____cxa_finalize # -- Begin function sub_440____cxa_finalize
	.p2align	4, 0x90
	.type	sub_440____cxa_finalize,@function
sub_440____cxa_finalize:                # @sub_440____cxa_finalize
.Lsub_440____cxa_finalize$local:
.Lfunc_begin12:
	.cfi_startproc
# %bb.0:                                # %block_440
	pushl	%ebp
	.cfi_def_cfa_offset 8
	.cfi_offset %ebp, -8
	movl	%esp, %ebp
	.cfi_def_cfa_register %ebp
	subl	$8, %esp
	movl	16(%ebp), %ecx
	movl	8(%ebp), %eax
	movl	2232(%eax), %edx
	movl	__cxa_finalize(%edx), %edx
	movl	%edx, 2472(%eax)
	subl	$4, %esp
	cmpl	$1094, %edx             # imm = 0x446
	jne	.LBB12_3
# %bb.1:                                # %block_446
	pushl	%ecx
	pushl	$1096                   # imm = 0x448
	pushl	%eax
	calll	.Lsub_448____gmon_start__$local
	jmp	.LBB12_2
.LBB12_3:
	pushl	%ecx
	pushl	%edx
	pushl	%eax
	calll	__remill_jump
.LBB12_2:                               # %block_446
	addl	$24, %esp
	popl	%ebp
	.cfi_def_cfa %esp, 4
	retl
.Lfunc_end12:
	.size	sub_440____cxa_finalize, .Lfunc_end12-sub_440____cxa_finalize
	.cfi_endproc
                                        # -- End function
	.globl	sub_3cc__init_proc      # -- Begin function sub_3cc__init_proc
	.p2align	4, 0x90
	.type	sub_3cc__init_proc,@function
sub_3cc__init_proc:                     # @sub_3cc__init_proc
.Lsub_3cc__init_proc$local:
.Lfunc_begin13:
	.cfi_startproc
# %bb.0:                                # %block_3cc
	pushl	%ebp
	.cfi_def_cfa_offset 8
	.cfi_offset %ebp, -8
	movl	%esp, %ebp
	.cfi_def_cfa_register %ebp
	pushl	%ebx
	pushl	%edi
	pushl	%esi
	subl	$12, %esp
	.cfi_offset %esi, -20
	.cfi_offset %edi, -16
	.cfi_offset %ebx, -12
	movl	8(%ebp), %edi
	movl	2120(%edi), %esi
	movl	%esi, -16(%ebp)         # 4-byte Spill
	movl	2232(%edi), %ecx
	movl	2312(%edi), %eax
	leal	-4(%eax), %edx
	movl	%ecx, -4(%esi,%eax)
	leal	-12(%eax), %ebx
	cmpl	$8, %edx
	setb	2065(%edi)
	movzbl	%bl, %esi
	movl	%esi, %ecx
	shrl	%ecx
	andl	$-43, %ecx
	subl	%ecx, %esi
	movl	%esi, %ecx
	andl	$858993459, %ecx        # imm = 0x33333333
	shrl	$2, %esi
	andl	$858993459, %esi        # imm = 0x33333333
	addl	%ecx, %esi
	movl	%esi, %ecx
	shrl	$4, %ecx
	addl	%esi, %ecx
	andl	$17764111, %ecx         # imm = 0x10F0F0F
	imull	$16843009, %ecx, %ecx   # imm = 0x1010101
	shrl	$24, %ecx
	notb	%cl
	andb	$1, %cl
	movb	%cl, 2067(%edi)
	movl	%edx, %ecx
	xorl	%ebx, %ecx
	shrb	$4, %cl
	andb	$1, %cl
	movb	%cl, 2069(%edi)
	testl	%ebx, %ebx
	sete	2071(%edi)
	shrl	$31, %ebx
	movb	%bl, 2073(%edi)
	shrl	$31, %edx
	xorl	%edx, %ebx
	addl	%edx, %ebx
	movl	12(%ebp), %ecx
	cmpl	$2, %ebx
	sete	2077(%edi)
	leal	196(%ecx), %edx
	addl	$9, %ecx
	movl	-16(%ebp), %esi         # 4-byte Reload
	movl	%ecx, -16(%esi,%eax)
	addl	$-16, %eax
	movl	%eax, 2312(%edi)
	movl	16(%ebp), %eax
	subl	$4, %esp
	pushl	%eax
	pushl	%edx
	pushl	%edi
	calll	.Lsub_490___x86_get_pc_thunk_bx$local
	addl	$16, %esp
	movl	%eax, -16(%ebp)         # 4-byte Spill
	movl	2232(%edi), %edx
	movl	2472(%edi), %eax
	leal	7163(%edx), %esi
	movl	%esi, 2232(%edi)
	movl	7199(%edx), %ecx
	movl	%ecx, 2216(%edi)
	movb	$0, 2065(%edi)
	movzbl	%cl, %esi
	movl	%esi, %ebx
	shrl	%ebx
	andl	$-43, %ebx
	subl	%ebx, %esi
	movl	%esi, %ebx
	andl	$858993459, %ebx        # imm = 0x33333333
	shrl	$2, %esi
	andl	$858993459, %esi        # imm = 0x33333333
	addl	%ebx, %esi
	movl	%esi, %ebx
	shrl	$4, %ebx
	addl	%esi, %ebx
	andl	$17764111, %ebx         # imm = 0x10F0F0F
	imull	$16843009, %ebx, %ebx   # imm = 0x1010101
	shrl	$24, %ebx
	notb	%bl
	andb	$1, %bl
	movb	%bl, 2067(%edi)
	movl	%ecx, %edx
	shrl	$31, %edx
	xorl	%ebx, %ebx
	testl	%ecx, %ecx
	sete	2071(%edi)
	movb	%dl, 2073(%edi)
	sete	%dl
	movb	$0, 2077(%edi)
	movb	$0, 2069(%edi)
	je	.LBB13_2
# %bb.1:                                # %block_3e5
	movb	%dl, %bl
	leal	(%ebx,%ebx,4), %ecx
	leal	16(%eax,%ecx), %eax
	leal	99(%eax), %ecx
	addl	$5, %eax
	movl	2120(%edi), %edx
	movl	2312(%edi), %esi
	movl	%eax, -4(%edx,%esi)
	addl	$-4, %esi
	movl	%esi, 2312(%edi)
	subl	$4, %esp
	pushl	-16(%ebp)               # 4-byte Folded Reload
	pushl	%ecx
	pushl	%edi
	calll	.Lsub_448____gmon_start__$local
	addl	$16, %esp
	movl	%eax, -16(%ebp)         # 4-byte Spill
.LBB13_2:                               # %block_3ea
	movl	2312(%edi), %ecx
	movl	%ecx, %edx
	addl	$8, %edx
	setb	%al
	cmpl	$-9, %ecx
	seta	%ah
	movzbl	%dl, %esi
	movl	%esi, %ebx
	shrl	%ebx
	andl	$-43, %ebx
	subl	%ebx, %esi
	movl	%esi, %ebx
	andl	$858993459, %ebx        # imm = 0x33333333
	shrl	$2, %esi
	andl	$858993459, %esi        # imm = 0x33333333
	addl	%ebx, %esi
	movl	%esi, %ebx
	shrl	$4, %ebx
	addl	%esi, %ebx
	orb	%al, %ah
	movl	2120(%edi), %esi
	movb	%ah, 2065(%edi)
	andl	$17764111, %ebx         # imm = 0x10F0F0F
	imull	$16843009, %ebx, %ebx   # imm = 0x1010101
	shrl	$24, %ebx
	notb	%bl
	andb	$1, %bl
	movb	%bl, 2067(%edi)
	movl	%edx, %eax
	xorl	%ecx, %eax
	shrb	$4, %al
	andb	$1, %al
	movb	%al, 2069(%edi)
	testl	%edx, %edx
	sete	2071(%edi)
	movl	%edx, %ebx
	shrl	$31, %ebx
	movb	%bl, 2073(%edi)
	movl	%ecx, %eax
	shrl	$31, %eax
	xorl	%ebx, %eax
	addl	%ebx, %eax
	cmpl	$2, %eax
	sete	2077(%edi)
	movl	(%esi,%edx), %eax
	movl	%eax, 2232(%edi)
	movl	12(%ecx,%esi), %eax
	movl	%eax, 2472(%edi)
	addl	$16, %ecx
	movl	%ecx, 2312(%edi)
	movl	-16(%ebp), %eax         # 4-byte Reload
	addl	$12, %esp
	popl	%esi
	popl	%edi
	popl	%ebx
	popl	%ebp
	.cfi_def_cfa %esp, 4
	retl
.Lfunc_end13:
	.size	sub_3cc__init_proc, .Lfunc_end13-sub_3cc__init_proc
	.cfi_endproc
                                        # -- End function
	.globl	sub_4a0_deregister_tm_clones # -- Begin function sub_4a0_deregister_tm_clones
	.p2align	4, 0x90
	.type	sub_4a0_deregister_tm_clones,@function
sub_4a0_deregister_tm_clones:           # @sub_4a0_deregister_tm_clones
.Lsub_4a0_deregister_tm_clones$local:
.Lfunc_begin14:
	.cfi_startproc
# %bb.0:                                # %block_4d8
	pushl	%ebp
	.cfi_def_cfa_offset 8
	.cfi_offset %ebp, -8
	movl	%esp, %ebp
	.cfi_def_cfa_register %ebp
	pushl	%edi
	pushl	%esi
	.cfi_offset %esi, -16
	.cfi_offset %edi, -12
	movl	8(%ebp), %esi
	movl	12(%ebp), %eax
	leal	233(%eax), %ecx
	addl	$5, %eax
	movl	2120(%esi), %edx
	movl	2312(%esi), %edi
	movl	%eax, -4(%edx,%edi)
	addl	$-4, %edi
	movl	%edi, 2312(%esi)
	movl	16(%ebp), %eax
	subl	$4, %esp
	pushl	%eax
	pushl	%ecx
	pushl	%esi
	calll	.Lsub_589___x86_get_pc_thunk_dx$local
	addl	$16, %esp
	movl	2120(%esi), %ecx
	movl	2264(%esi), %edx
	leal	6955(%edx), %edi
	movl	%edi, 2264(%esi)
	addl	$7011, %edx             # imm = 0x1B63
	movl	%edx, 2248(%esi)
	movl	%edx, 2216(%esi)
	movb	$0, 2065(%esi)
	movb	$1, 2067(%esi)
	movb	$0, 2069(%esi)
	movb	$1, 2071(%esi)
	movb	$0, 2073(%esi)
	movb	$0, 2077(%esi)
	movl	2312(%esi), %edx
	movl	(%ecx,%edx), %ecx
	movl	%ecx, 2472(%esi)
	addl	$4, %edx
	movl	%edx, 2312(%esi)
	popl	%esi
	popl	%edi
	popl	%ebp
	.cfi_def_cfa %esp, 4
	retl
.Lfunc_end14:
	.size	sub_4a0_deregister_tm_clones, .Lfunc_end14-sub_4a0_deregister_tm_clones
	.cfi_endproc
                                        # -- End function
	.globl	sub_714__term_proc      # -- Begin function sub_714__term_proc
	.p2align	4, 0x90
	.type	sub_714__term_proc,@function
sub_714__term_proc:                     # @sub_714__term_proc
.Lsub_714__term_proc$local:
.Lfunc_begin15:
	.cfi_startproc
# %bb.0:                                # %block_714
	pushl	%ebp
	.cfi_def_cfa_offset 8
	.cfi_offset %ebp, -8
	movl	%esp, %ebp
	.cfi_def_cfa_register %ebp
	pushl	%ebx
	pushl	%edi
	pushl	%esi
	subl	$12, %esp
	.cfi_offset %esi, -20
	.cfi_offset %edi, -16
	.cfi_offset %ebx, -12
	movl	8(%ebp), %edi
	movl	2120(%edi), %eax
	movl	%eax, -16(%ebp)         # 4-byte Spill
	movl	2232(%edi), %ecx
	movl	2312(%edi), %edx
	leal	-4(%edx), %esi
	movl	%ecx, -4(%eax,%edx)
	leal	-12(%edx), %ebx
	cmpl	$8, %esi
	setb	2065(%edi)
	movzbl	%bl, %eax
	movl	%eax, %ecx
	shrl	%ecx
	andl	$-43, %ecx
	subl	%ecx, %eax
	movl	%eax, %ecx
	andl	$858993459, %ecx        # imm = 0x33333333
	shrl	$2, %eax
	andl	$858993459, %eax        # imm = 0x33333333
	addl	%ecx, %eax
	movl	%eax, %ecx
	shrl	$4, %ecx
	addl	%eax, %ecx
	andl	$17764111, %ecx         # imm = 0x10F0F0F
	imull	$16843009, %ecx, %ecx   # imm = 0x1010101
	shrl	$24, %ecx
	notb	%cl
	andb	$1, %cl
	movb	%cl, 2067(%edi)
	movl	%esi, %eax
	xorl	%ebx, %eax
	shrb	$4, %al
	andb	$1, %al
	movb	%al, 2069(%edi)
	testl	%ebx, %ebx
	sete	2071(%edi)
	shrl	$31, %ebx
	movb	%bl, 2073(%edi)
	shrl	$31, %esi
	xorl	%esi, %ebx
	addl	%esi, %ebx
	movl	12(%ebp), %eax
	cmpl	$2, %ebx
	sete	2077(%edi)
	leal	-644(%eax), %ecx
	addl	$9, %eax
	movl	-16(%ebp), %esi         # 4-byte Reload
	movl	%eax, -16(%esi,%edx)
	addl	$-16, %edx
	movl	%edx, 2312(%edi)
	movl	16(%ebp), %eax
	subl	$4, %esp
	pushl	%eax
	pushl	%ecx
	pushl	%edi
	calll	.Lsub_490___x86_get_pc_thunk_bx$local
	addl	$16, %esp
	movl	%eax, -16(%ebp)         # 4-byte Spill
	movl	2312(%edi), %ecx
	movl	%ecx, %edx
	addl	$8, %edx
	setb	%bl
	cmpl	$-9, %ecx
	seta	%bh
	movzbl	%dl, %eax
	movl	%eax, %esi
	shrl	%esi
	andl	$-43, %esi
	subl	%esi, %eax
	movl	%eax, %esi
	andl	$858993459, %esi        # imm = 0x33333333
	shrl	$2, %eax
	andl	$858993459, %eax        # imm = 0x33333333
	addl	%esi, %eax
	movl	%eax, %esi
	shrl	$4, %esi
	addl	%eax, %esi
	orb	%bl, %bh
	movl	2120(%edi), %eax
	movb	%bh, 2065(%edi)
	andl	$17764111, %esi         # imm = 0x10F0F0F
	imull	$16843009, %esi, %ebx   # imm = 0x1010101
	shrl	$24, %ebx
	notb	%bl
	andb	$1, %bl
	movb	%bl, 2067(%edi)
	movl	%edx, %ebx
	xorl	%ecx, %ebx
	shrb	$4, %bl
	andb	$1, %bl
	movb	%bl, 2069(%edi)
	testl	%edx, %edx
	sete	2071(%edi)
	movl	%edx, %ebx
	shrl	$31, %ebx
	movb	%bl, 2073(%edi)
	movl	%ecx, %esi
	shrl	$31, %esi
	xorl	%ebx, %esi
	addl	%ebx, %esi
	cmpl	$2, %esi
	sete	2077(%edi)
	movl	(%eax,%edx), %edx
	movl	%edx, 2232(%edi)
	movl	12(%ecx,%eax), %eax
	movl	%eax, 2472(%edi)
	addl	$16, %ecx
	movl	%ecx, 2312(%edi)
	movl	-16(%ebp), %eax         # 4-byte Reload
	addl	$12, %esp
	popl	%esi
	popl	%edi
	popl	%ebx
	popl	%ebp
	.cfi_def_cfa %esp, 4
	retl
.Lfunc_end15:
	.size	sub_714__term_proc, .Lfunc_end15-sub_714__term_proc
	.cfi_endproc
                                        # -- End function
	.globl	sub_450__start          # -- Begin function sub_450__start
	.p2align	4, 0x90
	.type	sub_450__start,@function
sub_450__start:                         # @sub_450__start
.Lsub_450__start$local:
.Lfunc_begin16:
	.cfi_startproc
# %bb.0:                                # %block_450
	pushl	%ebp
	.cfi_def_cfa_offset 8
	.cfi_offset %ebp, -8
	movl	%esp, %ebp
	.cfi_def_cfa_register %ebp
	pushl	%ebx
	pushl	%edi
	pushl	%esi
	subl	$12, %esp
	.cfi_offset %esi, -20
	.cfi_offset %edi, -16
	.cfi_offset %ebx, -12
	movl	8(%ebp), %esi
	movl	$0, 2328(%esi)
	movl	2312(%esi), %edx
	movl	2120(%esi), %eax
	movl	2216(%esi), %ecx
	movl	(%eax,%edx), %edi
	addl	$4, %edx
	movl	%edi, 2280(%esi)
	movl	%edx, %edi
	andl	$240, %edi
	movl	%edi, %ebx
	shrl	%ebx
	andl	$-48, %ebx
	subl	%ebx, %edi
	movl	%edi, %ebx
	andl	$858993456, %ebx        # imm = 0x33333330
	shrl	$2, %edi
	andl	$858993456, %edi        # imm = 0x33333330
	addl	%ebx, %edi
	movl	%edi, %ebx
	shrl	$4, %ebx
	addl	%edi, %ebx
	movl	%edx, 2248(%esi)
	movb	$0, 2065(%esi)
	andl	$17764103, %ebx         # imm = 0x10F0F07
	imull	$16843009, %ebx, %ebx   # imm = 0x1010101
	shrl	$24, %ebx
	notb	%bl
	andb	$1, %bl
	movb	%bl, 2067(%esi)
	movl	%edx, %edi
	andl	$-16, %edi
	testl	%edi, %edi
	sete	2071(%esi)
	shrl	$31, %edx
	movb	%dl, 2073(%esi)
	movl	12(%ebp), %edx
	movb	$0, 2077(%esi)
	movb	$0, 2069(%esi)
	movl	%ecx, -4(%edi,%eax)
	leal	-4(%edi), %ecx
	movl	%ecx, -8(%edi,%eax)
	movl	2264(%esi), %ecx
	movl	%ecx, -12(%edi,%eax)
	leal	50(%edx), %ecx
	addl	$16, %edx
	movl	%edx, -16(%edi,%eax)
	addl	$-16, %edi
	movl	%edi, 2312(%esi)
	movl	16(%ebp), %eax
	subl	$4, %esp
	pushl	%eax
	pushl	%ecx
	pushl	%esi
	calll	.Lsub_482$local
	addl	$16, %esp
	movl	%eax, -20(%ebp)         # 4-byte Spill
	movl	2232(%esi), %eax
	movl	%eax, -16(%ebp)         # 4-byte Spill
	movl	%eax, %edx
	addl	$7024, %edx             # imm = 0x1B70
	setb	%cl
	cmpl	$-7025, %eax            # imm = 0xE48F
	seta	%ch
	movzbl	%dl, %edi
	movl	%edi, %ebx
	shrl	%ebx
	andl	$-43, %ebx
	subl	%ebx, %edi
	movl	%edi, %ebx
	andl	$858993459, %ebx        # imm = 0x33333333
	shrl	$2, %edi
	andl	$858993459, %edi        # imm = 0x33333333
	addl	%ebx, %edi
	movl	%edi, %eax
	shrl	$4, %eax
	addl	%edi, %eax
	orb	%cl, %ch
	movl	2120(%esi), %edi
	movl	2472(%esi), %ebx
	movl	%edx, 2232(%esi)
	movb	%ch, 2065(%esi)
	andl	$17764111, %eax         # imm = 0x10F0F0F
	imull	$16843009, %eax, %eax   # imm = 0x1010101
	shrl	$24, %eax
	notb	%al
	andb	$1, %al
	movb	%al, 2067(%esi)
	movl	-16(%ebp), %eax         # 4-byte Reload
	movl	%eax, %ecx
	xorl	%edx, %ecx
	notb	%cl
	shrb	$4, %cl
	andb	$1, %cl
	movb	%cl, 2069(%esi)
	testl	%edx, %edx
	sete	2071(%esi)
	shrl	$31, %edx
	movb	%dl, 2073(%esi)
	movl	%eax, %ecx
	shrl	$31, %eax
	xorl	%edx, %eax
	addl	%edx, %eax
	cmpl	$2, %eax
	sete	2077(%esi)
	movl	%ecx, %edx
	leal	688(%ecx), %eax
	movl	2312(%esi), %ecx
	movl	%eax, -4(%ecx,%edi)
	leal	592(%edx), %eax
	movl	%eax, 2216(%esi)
	movl	%eax, -8(%ecx,%edi)
	movl	2248(%esi), %eax
	movl	%eax, -12(%ecx,%edi)
	movl	2280(%esi), %eax
	movl	%eax, -16(%ecx,%edi)
	movl	7064(%edx), %eax
	movl	%eax, -20(%ecx,%edi)
	leal	-64(%ebx), %eax
	addl	$33, %ebx
	movl	%ebx, -24(%edi,%ecx)
	addl	$-24, %ecx
	movl	%ecx, 2312(%esi)
	subl	$4, %esp
	pushl	-20(%ebp)               # 4-byte Folded Reload
	pushl	%eax
	pushl	%esi
	calll	.Lsub_420____libc_start_main$local
	addl	$12, %esp
	pushl	%eax
	pushl	2472(%esi)
	pushl	%esi
	calll	__remill_error
	addl	$28, %esp
	popl	%esi
	popl	%edi
	popl	%ebx
	popl	%ebp
	.cfi_def_cfa %esp, 4
	retl
.Lfunc_end16:
	.size	sub_450__start, .Lfunc_end16-sub_450__start
	.cfi_endproc
                                        # -- End function
	.globl	sub_589___x86_get_pc_thunk_dx # -- Begin function sub_589___x86_get_pc_thunk_dx
	.p2align	4, 0x90
	.type	sub_589___x86_get_pc_thunk_dx,@function
sub_589___x86_get_pc_thunk_dx:          # @sub_589___x86_get_pc_thunk_dx
.Lsub_589___x86_get_pc_thunk_dx$local:
.Lfunc_begin17:
	.cfi_startproc
# %bb.0:                                # %block_589
	pushl	%ebp
	.cfi_def_cfa_offset 8
	.cfi_offset %ebp, -8
	movl	%esp, %ebp
	.cfi_def_cfa_register %ebp
	pushl	%edi
	pushl	%esi
	.cfi_offset %esi, -16
	.cfi_offset %edi, -12
	movl	16(%ebp), %eax
	movl	8(%ebp), %ecx
	movl	2120(%ecx), %edx
	movl	2312(%ecx), %esi
	movl	(%esi), %edi
	movl	%edi, 2264(%ecx)
	movl	(%edx,%esi), %edx
	movl	%edx, 2472(%ecx)
	addl	$4, %esi
	movl	%esi, 2312(%ecx)
	popl	%esi
	popl	%edi
	popl	%ebp
	.cfi_def_cfa %esp, 4
	retl
.Lfunc_end17:
	.size	sub_589___x86_get_pc_thunk_dx, .Lfunc_end17-sub_589___x86_get_pc_thunk_dx
	.cfi_endproc
                                        # -- End function
	.globl	sub_6b0___libc_csu_init # -- Begin function sub_6b0___libc_csu_init
	.p2align	4, 0x90
	.type	sub_6b0___libc_csu_init,@function
sub_6b0___libc_csu_init:                # @sub_6b0___libc_csu_init
.Lsub_6b0___libc_csu_init$local:
.Lfunc_begin18:
	.cfi_startproc
# %bb.0:                                # %block_6b0
	pushl	%ebp
	.cfi_def_cfa_offset 8
	.cfi_offset %ebp, -8
	movl	%esp, %ebp
	.cfi_def_cfa_register %ebp
	pushl	%ebx
	pushl	%edi
	pushl	%esi
	subl	$12, %esp
	.cfi_offset %esi, -20
	.cfi_offset %edi, -16
	.cfi_offset %ebx, -12
	movl	12(%ebp), %eax
	movl	8(%ebp), %esi
	movl	2328(%esi), %ecx
	movl	2120(%esi), %edx
	movl	2312(%esi), %edi
	movl	%ecx, -4(%edi,%edx)
	movl	2296(%esi), %ecx
	movl	%ecx, -8(%edi,%edx)
	movl	2280(%esi), %ecx
	movl	%ecx, -12(%edi,%edx)
	movl	2232(%esi), %ecx
	movl	%ecx, -16(%edi,%edx)
	leal	-544(%eax), %ecx
	addl	$9, %eax
	movl	%eax, -20(%edx,%edi)
	addl	$-20, %edi
	movl	%edi, 2312(%esi)
	movl	16(%ebp), %eax
	subl	$4, %esp
	pushl	%eax
	pushl	%ecx
	pushl	%esi
	calll	.Lsub_490___x86_get_pc_thunk_bx$local
	addl	$16, %esp
	movl	%eax, -16(%ebp)         # 4-byte Spill
	movl	2120(%esi), %eax
	movl	2232(%esi), %edx
	movl	2472(%esi), %edi
	leal	6423(%edx), %ebx
	movl	%ebx, 2232(%esi)
	movl	2312(%esi), %ebx
	movl	28(%ebx), %ecx
	movl	%ecx, 2328(%esi)
	addl	$6163, %edx             # imm = 0x1813
	movl	%edx, 2280(%esi)
	leal	-749(%edi), %ecx
	addl	$24, %edi
	movl	%edi, -16(%eax,%ebx)
	addl	$-16, %ebx
	movl	%ebx, 2312(%esi)
	subl	$4, %esp
	pushl	-16(%ebp)               # 4-byte Folded Reload
	pushl	%ecx
	pushl	%esi
	calll	.Lsub_3cc__init_proc$local
	addl	$16, %esp
	movl	%eax, -16(%ebp)         # 4-byte Spill
	movl	2232(%esi), %eax
	movl	2280(%esi), %ecx
	leal	-264(%eax), %edx
	subl	%edx, %ecx
	sarl	$2, %ecx
	movl	$52, %edi
	je	.LBB18_2
# %bb.1:                                # %block_6b0
	movl	$15, %edi
.LBB18_2:                               # %block_6b0
	addl	2472(%esi), %edi
	testl	%ecx, %ecx
	movl	%edx, 2216(%esi)
	je	.LBB18_3
# %bb.5:                                # %block_6e0
	movl	$0, 2296(%esi)
	addl	$8, %edi
	movl	%ecx, 2280(%esi)
	movl	2312(%esi), %edx
	movl	$0, -20(%ebp)           # 4-byte Folded Spill
	movl	%eax, -24(%ebp)         # 4-byte Spill
	.p2align	4, 0x90
.LBB18_6:                               # %block_6e8
                                        # =>This Inner Loop Header: Depth=1
	movl	%edx, %ecx
	subl	$4, %ecx
	setb	2065(%esi)
	sete	2071(%esi)
	movl	%esi, %ebx
	movzbl	%cl, %esi
	movl	%esi, %eax
	shrl	%eax
	andl	$-43, %eax
	subl	%eax, %esi
	movl	%esi, %eax
	andl	$858993459, %eax        # imm = 0x33333333
	shrl	$2, %esi
	andl	$858993459, %esi        # imm = 0x33333333
	addl	%eax, %esi
	movl	%esi, %eax
	shrl	$4, %eax
	addl	%esi, %eax
	andl	$17764111, %eax         # imm = 0x10F0F0F
	imull	$16843009, %eax, %eax   # imm = 0x1010101
	shrl	$24, %eax
	notb	%al
	andb	$1, %al
	movb	%al, 2067(%ebx)
	movl	%ecx, %eax
	xorl	%edx, %eax
	shrb	$4, %al
	andb	$1, %al
	movb	%al, 2069(%ebx)
	shrl	$31, %ecx
	movb	%cl, 2073(%ebx)
	movl	%edx, %eax
	shrl	$31, %eax
	xorl	%eax, %ecx
	addl	%eax, %ecx
	cmpl	$2, %ecx
	sete	2077(%ebx)
	movl	2120(%ebx), %eax
	movl	2328(%ebx), %ecx
	movl	%ecx, -8(%edx,%eax)
	movl	36(%edx), %ecx
	movl	%ecx, -12(%edx,%eax)
	movl	32(%edx), %ecx
	movl	%ecx, -16(%edx,%eax)
	addl	$19, %edi
	movl	%edi, -20(%eax,%edx)
	addl	$-20, %edx
	movl	%edx, 2312(%ebx)
	movl	-20(%ebp), %eax         # 4-byte Reload
	movl	-24(%ebp), %ecx         # 4-byte Reload
	movl	-264(%ecx,%eax,4), %eax
	movl	%eax, 2472(%ebx)
	subl	$4, %esp
	pushl	-16(%ebp)               # 4-byte Folded Reload
	pushl	%eax
	pushl	%ebx
	calll	__remill_function_call
	addl	$16, %esp
	movl	%eax, -16(%ebp)         # 4-byte Spill
	movl	2280(%ebx), %eax
	movl	2296(%ebx), %esi
	incl	%esi
	movl	2312(%ebx), %edx
	cmpl	%esi, %eax
	movl	$10, %edi
	je	.LBB18_8
# %bb.7:                                # %block_6e8
                                        #   in Loop: Header=BB18_6 Depth=1
	movl	$-19, %edi
.LBB18_8:                               # %block_6e8
                                        #   in Loop: Header=BB18_6 Depth=1
	addl	$16, %edx
	addl	2472(%ebx), %edi
	cmpl	%esi, %eax
	movl	%esi, 2296(%ebx)
	je	.LBB18_9
# %bb.10:                               # %block_6e8.block_6e8_crit_edge
                                        #   in Loop: Header=BB18_6 Depth=1
	movl	%esi, -20(%ebp)         # 4-byte Spill
	movl	2232(%ebx), %eax
	movl	%eax, -24(%ebp)         # 4-byte Spill
	movl	%ebx, %esi
	jmp	.LBB18_6
.LBB18_9:
	movl	%ebx, %esi
	jmp	.LBB18_4
.LBB18_3:                               # %block_6b0.block_705_crit_edge
	movl	2312(%esi), %edx
.LBB18_4:                               # %block_705
	movl	%edx, %edi
	shrl	$31, %edi
	movl	%edx, %eax
	addl	$12, %eax
	movl	%eax, -20(%ebp)         # 4-byte Spill
	setb	%cl
	cmpl	$-13, %edx
	seta	%ch
	movzbl	%al, %eax
	movl	%eax, %ebx
	shrl	%ebx
	andl	$-43, %ebx
	subl	%ebx, %eax
	movl	%eax, %ebx
	andl	$858993459, %ebx        # imm = 0x33333333
	shrl	$2, %eax
	andl	$858993459, %eax        # imm = 0x33333333
	addl	%ebx, %eax
	movl	%eax, %ebx
	shrl	$4, %ebx
	addl	%eax, %ebx
	orb	%cl, %ch
	movb	%ch, 2065(%esi)
	andl	$17764111, %ebx         # imm = 0x10F0F0F
	imull	$16843009, %ebx, %ecx   # imm = 0x1010101
	shrl	$24, %ecx
	notb	%cl
	andb	$1, %cl
	movb	%cl, 2067(%esi)
	movl	-20(%ebp), %ecx         # 4-byte Reload
	movl	%ecx, %eax
	xorl	%edx, %eax
	shrb	$4, %al
	andb	$1, %al
	movb	%al, 2069(%esi)
	testl	%ecx, %ecx
	sete	2071(%esi)
	movl	%ecx, %eax
	shrl	$31, %eax
	movb	%al, 2073(%esi)
	xorl	%eax, %edi
	addl	%eax, %edi
	cmpl	$2, %edi
	sete	2077(%esi)
	movl	2120(%esi), %eax
	movl	(%eax,%ecx), %ecx
	movl	%ecx, 2232(%esi)
	movl	16(%edx,%eax), %ecx
	movl	%ecx, 2280(%esi)
	movl	20(%edx,%eax), %ecx
	movl	%ecx, 2296(%esi)
	movl	24(%edx,%eax), %ecx
	movl	%ecx, 2328(%esi)
	movl	28(%edx,%eax), %eax
	movl	%eax, 2472(%esi)
	addl	$32, %edx
	movl	%edx, 2312(%esi)
	movl	-16(%ebp), %eax         # 4-byte Reload
	addl	$12, %esp
	popl	%esi
	popl	%edi
	popl	%ebx
	popl	%ebp
	.cfi_def_cfa %esp, 4
	retl
.Lfunc_end18:
	.size	sub_6b0___libc_csu_init, .Lfunc_end18-sub_6b0___libc_csu_init
	.cfi_endproc
                                        # -- End function
	.globl	sub_4e0_register_tm_clones # -- Begin function sub_4e0_register_tm_clones
	.p2align	4, 0x90
	.type	sub_4e0_register_tm_clones,@function
sub_4e0_register_tm_clones:             # @sub_4e0_register_tm_clones
.Lsub_4e0_register_tm_clones$local:
.Lfunc_begin19:
	.cfi_startproc
# %bb.0:                                # %block_522
	pushl	%ebp
	.cfi_def_cfa_offset 8
	.cfi_offset %ebp, -8
	movl	%esp, %ebp
	.cfi_def_cfa_register %ebp
	pushl	%ebx
	pushl	%edi
	pushl	%esi
	subl	$12, %esp
	.cfi_offset %esi, -20
	.cfi_offset %edi, -16
	.cfi_offset %ebx, -12
	movl	8(%ebp), %esi
	movl	12(%ebp), %eax
	leal	169(%eax), %ecx
	addl	$5, %eax
	movl	2120(%esi), %edx
	movl	2312(%esi), %edi
	movl	%eax, -4(%edx,%edi)
	addl	$-4, %edi
	movl	%edi, 2312(%esi)
	movl	16(%ebp), %eax
	subl	$4, %esp
	pushl	%eax
	pushl	%ecx
	pushl	%esi
	calll	.Lsub_589___x86_get_pc_thunk_dx$local
	addl	$16, %esp
	movl	2120(%esi), %ecx
	movl	2264(%esi), %edx
	leal	6891(%edx), %edi
	movl	%edi, 2264(%esi)
	movl	2328(%esi), %edi
	movl	2312(%esi), %ebx
	movl	%edi, -4(%ecx,%ebx)
	addl	$6947, %edx             # imm = 0x1B23
	movl	%edx, 2248(%esi)
	movl	2232(%esi), %edx
	movl	%edx, -8(%ecx,%ebx)
	movl	$0, 2216(%esi)
	movb	$0, 2065(%esi)
	movb	$1, 2067(%esi)
	movb	$0, 2069(%esi)
	movb	$1, 2071(%esi)
	movb	$0, 2073(%esi)
	movb	$0, 2077(%esi)
	movl	-8(%ebx), %ecx
	movl	%ecx, 2232(%esi)
	movl	2120(%esi), %ecx
	movl	-4(%ecx,%ebx), %edx
	movl	%edx, 2328(%esi)
	movl	(%ecx,%ebx), %ecx
	movl	%ecx, 2472(%esi)
	addl	$4, %ebx
	movl	%ebx, 2312(%esi)
	addl	$12, %esp
	popl	%esi
	popl	%edi
	popl	%ebx
	popl	%ebp
	.cfi_def_cfa %esp, 4
	retl
.Lfunc_end19:
	.size	sub_4e0_register_tm_clones, .Lfunc_end19-sub_4e0_register_tm_clones
	.cfi_endproc
                                        # -- End function
	.globl	sub_490___x86_get_pc_thunk_bx # -- Begin function sub_490___x86_get_pc_thunk_bx
	.p2align	4, 0x90
	.type	sub_490___x86_get_pc_thunk_bx,@function
sub_490___x86_get_pc_thunk_bx:          # @sub_490___x86_get_pc_thunk_bx
.Lsub_490___x86_get_pc_thunk_bx$local:
.Lfunc_begin20:
	.cfi_startproc
# %bb.0:                                # %block_490
	pushl	%ebp
	.cfi_def_cfa_offset 8
	.cfi_offset %ebp, -8
	movl	%esp, %ebp
	.cfi_def_cfa_register %ebp
	pushl	%edi
	pushl	%esi
	.cfi_offset %esi, -16
	.cfi_offset %edi, -12
	movl	16(%ebp), %eax
	movl	8(%ebp), %ecx
	movl	2120(%ecx), %edx
	movl	2312(%ecx), %esi
	movl	(%esi), %edi
	movl	%edi, 2232(%ecx)
	movl	(%edx,%esi), %edx
	movl	%edx, 2472(%ecx)
	addl	$4, %esi
	movl	%esi, 2312(%ecx)
	popl	%esi
	popl	%edi
	popl	%ebp
	.cfi_def_cfa %esp, 4
	retl
.Lfunc_end20:
	.size	sub_490___x86_get_pc_thunk_bx, .Lfunc_end20-sub_490___x86_get_pc_thunk_bx
	.cfi_endproc
                                        # -- End function
	.globl	sub_58d_main            # -- Begin function sub_58d_main
	.p2align	4, 0x90
	.type	sub_58d_main,@function
sub_58d_main:                           # @sub_58d_main
.Lsub_58d_main$local:
.Lfunc_begin21:
	.cfi_startproc
# %bb.0:                                # %block_58d
	pushl	%ebp
	.cfi_def_cfa_offset 8
	.cfi_offset %ebp, -8
	movl	%esp, %ebp
	.cfi_def_cfa_register %ebp
	pushl	%ebx
	pushl	%edi
	pushl	%esi
	subl	$28, %esp
	.cfi_offset %esi, -20
	.cfi_offset %edi, -16
	.cfi_offset %ebx, -12
	movl	8(%ebp), %ecx
	movl	2120(%ecx), %esi
	movl	%esi, -16(%ebp)         # 4-byte Spill
	movl	2312(%ecx), %eax
	leal	4(%eax), %edx
	movl	%edx, 2248(%ecx)
	movl	(%eax), %edi
	andl	$-16, %eax
	movl	%edi, -4(%eax,%esi)
	movl	2328(%ecx), %edi
	movl	%edi, -8(%esi,%eax)
	leal	-8(%eax), %edi
	movl	%edi, 2328(%ecx)
	movl	2232(%ecx), %edi
	movl	%edi, -12(%eax,%esi)
	leal	-16(%eax), %edi
	movl	%edx, -16(%esi,%eax)
	leal	-32(%eax), %ebx
	testl	%edi, %edi
	sete	2065(%ecx)
	movzbl	%bl, %esi
	movl	%esi, %edx
	shrl	%edx
	andl	$-48, %edx
	subl	%edx, %esi
	movl	%esi, %edx
	andl	$858993456, %edx        # imm = 0x33333330
	shrl	$2, %esi
	andl	$858993459, %esi        # imm = 0x33333333
	addl	%edx, %esi
	movl	%esi, %edx
	shrl	$4, %edx
	addl	%esi, %edx
	andl	$17764111, %edx         # imm = 0x10F0F0F
	imull	$16843009, %edx, %edx   # imm = 0x1010101
	shrl	$24, %edx
	notb	%dl
	andb	$1, %dl
	movb	%dl, 2067(%ecx)
	movl	%edi, %edx
	xorl	%ebx, %edx
	notb	%dl
	shrb	$4, %dl
	andb	$1, %dl
	movb	%dl, 2069(%ecx)
	testl	%ebx, %ebx
	sete	2071(%ecx)
	shrl	$31, %ebx
	movb	%bl, 2073(%ecx)
	shrl	$31, %edi
	xorl	%edi, %ebx
	addl	%edi, %ebx
	movl	12(%ebp), %edx
	cmpl	$2, %ebx
	movl	%ecx, %ebx
	sete	2077(%ecx)
	leal	-253(%edx), %esi
	addl	$23, %edx
	movl	-16(%ebp), %ecx         # 4-byte Reload
	movl	%edx, -36(%ecx,%eax)
	addl	$-36, %eax
	movl	%eax, 2312(%ebx)
	movl	16(%ebp), %eax
	subl	$4, %esp
	pushl	%eax
	pushl	%esi
	pushl	%ebx
	calll	.Lsub_490___x86_get_pc_thunk_bx$local
	addl	$16, %esp
	movl	2472(%ebx), %ecx
	movl	2232(%ebx), %edx
	movl	2328(%ebx), %esi
	leal	6700(%edx), %edi
	movl	%edi, 2232(%ebx)
	addl	$72, %edx
	movl	%edx, 2216(%ebx)
	movl	%edx, -12(%esi)
	movl	2120(%ebx), %esi
	movl	2312(%ebx), %edi
	movl	%edx, -16(%edi,%esi)
	leal	165(%ecx), %edx
	addl	$26, %ecx
	movl	%ecx, -20(%esi,%edi)
	addl	$-20, %edi
	movl	%edi, 2312(%ebx)
	subl	$4, %esp
	pushl	%eax
	pushl	%edx
	pushl	%ebx
	calll	.Lsub_649_change_page_permissions_of_address$local
	addl	$16, %esp
	movl	%eax, -16(%ebp)         # 4-byte Spill
	movl	2216(%ebx), %edi
	movl	2312(%ebx), %eax
	movl	%eax, -28(%ebp)         # 4-byte Spill
	cmpl	$-1, %edi
	setne	2065(%ebx)
	movl	%edi, %ecx
	addl	$1, %ecx
	movzbl	%cl, %eax
	movl	$8, %edx
	je	.LBB21_2
# %bb.1:                                # %block_58d
	movl	$26, %edx
.LBB21_2:                               # %block_58d
	movl	%edx, -20(%ebp)         # 4-byte Spill
	movl	%eax, %edx
	shrl	%edx
	andl	$-43, %edx
	subl	%edx, %eax
	movl	%eax, %edx
	andl	$858993459, %edx        # imm = 0x33333333
	shrl	$2, %eax
	andl	$858993459, %eax        # imm = 0x33333333
	addl	%edx, %eax
	movl	%eax, %edx
	shrl	$4, %edx
	addl	%eax, %edx
	movl	%edi, %eax
	xorl	%ecx, %eax
	shrl	$31, %ecx
	movl	%edi, %esi
	shrl	$31, %esi
	movl	%ecx, %ebx
	xorl	%esi, %ebx
	xorl	$1, %esi
	addl	%ebx, %esi
	andl	$17764111, %edx         # imm = 0x10F0F0F
	imull	$16843009, %edx, %edx   # imm = 0x1010101
	shrl	$24, %edx
	notb	%dl
	andb	$1, %dl
	notb	%al
	shrb	$4, %al
	andb	$1, %al
	cmpl	$2, %esi
	movl	8(%ebp), %ebx
	movl	-20(%ebp), %esi         # 4-byte Reload
	sete	2077(%ebx)
	addl	2472(%ebx), %esi
	movb	%dl, 2067(%ebx)
	movb	%al, 2069(%ebx)
	addl	$1, %edi
	sete	2071(%ebx)
	movb	%cl, 2073(%ebx)
	movl	-28(%ebp), %edi         # 4-byte Reload
	leal	16(%edi), %edx
	jne	.LBB21_3
# %bb.4:                                # %block_5c6
	movl	%edx, %eax
	shrl	$31, %eax
	movl	%eax, -20(%ebp)         # 4-byte Spill
	leal	4(%edi), %eax
	movl	%eax, -24(%ebp)         # 4-byte Spill
	cmpl	$12, %edx
	setb	2065(%ebx)
	movzbl	%al, %eax
	movl	%eax, %ecx
	shrl	%ecx
	andl	$-43, %ecx
	subl	%ecx, %eax
	movl	%eax, %ecx
	andl	$858993459, %ecx        # imm = 0x33333333
	shrl	$2, %eax
	andl	$858993459, %eax        # imm = 0x33333333
	addl	%ecx, %eax
	movl	%eax, %ecx
	shrl	$4, %ecx
	addl	%eax, %ecx
	andl	$17764111, %ecx         # imm = 0x10F0F0F
	imull	$16843009, %ecx, %eax   # imm = 0x1010101
	shrl	$24, %eax
	notb	%al
	andb	$1, %al
	movb	%al, 2067(%ebx)
	movl	-24(%ebp), %eax         # 4-byte Reload
	xorl	%eax, %edx
	shrb	$4, %dl
	andb	$1, %dl
	movb	%dl, 2069(%ebx)
	testl	%eax, %eax
	sete	2071(%ebx)
	shrl	$31, %eax
	movb	%al, 2073(%ebx)
	movl	-20(%ebp), %ecx         # 4-byte Reload
	xorl	%ecx, %eax
	addl	%ecx, %eax
	cmpl	$2, %eax
	sete	2077(%ebx)
	movl	$-6304, %eax            # imm = 0xE760
	addl	2232(%ebx), %eax
	movl	%eax, 2216(%ebx)
	movl	2120(%ebx), %ecx
	movl	%eax, (%ecx,%edi)
	leal	-438(%esi), %eax
	addl	$15, %esi
	movl	%esi, -4(%ecx,%edi)
	addl	$-4, %edi
	movl	%edi, 2312(%ebx)
	subl	$4, %esp
	pushl	-16(%ebp)               # 4-byte Folded Reload
	pushl	%eax
	pushl	%ebx
	calll	.Lsub_410__printf$local
	addl	$16, %esp
	movl	%eax, -16(%ebp)         # 4-byte Spill
	movl	2312(%ebx), %ecx
	movl	2472(%ebx), %eax
	addl	$3, %eax
	movl	%eax, -20(%ebp)         # 4-byte Spill
	movl	%ecx, %edx
	addl	$16, %edx
	setb	%al
	cmpl	$-17, %ecx
	seta	%ah
	movzbl	%dl, %esi
	movl	%esi, %edi
	shrl	%edi
	andl	$-43, %edi
	subl	%edi, %esi
	movl	%esi, %edi
	andl	$858993459, %edi        # imm = 0x33333333
	shrl	$2, %esi
	andl	$858993459, %esi        # imm = 0x33333333
	addl	%edi, %esi
	movl	%esi, %edi
	shrl	$4, %edi
	addl	%esi, %edi
	movl	-16(%ebp), %esi         # 4-byte Reload
	orb	%al, %ah
	movb	%ah, 2065(%ebx)
	andl	$17764111, %edi         # imm = 0x10F0F0F
	imull	$16843009, %edi, %eax   # imm = 0x1010101
	movl	-20(%ebp), %edi         # 4-byte Reload
	shrl	$24, %eax
	notb	%al
	andb	$1, %al
	movb	%al, 2067(%ebx)
	movl	%ecx, %eax
	xorl	%edx, %eax
	notb	%al
	shrb	$4, %al
	andb	$1, %al
	movb	%al, 2069(%ebx)
	testl	%edx, %edx
	sete	2071(%ebx)
	movl	%edx, %eax
	shrl	$31, %eax
	movb	%al, 2073(%ebx)
	shrl	$31, %ecx
	xorl	%eax, %ecx
	addl	%eax, %ecx
	cmpl	$2, %ecx
	sete	2077(%ebx)
	jmp	.LBB21_5
.LBB21_3:
	movl	%esi, %edi
	movl	-16(%ebp), %esi         # 4-byte Reload
.LBB21_5:                               # %block_5d8
	leal	20(%edi), %eax
	addl	$5, %edi
	movl	2120(%ebx), %ecx
	movl	%edi, -4(%ecx,%edx)
	addl	$-4, %edx
	movl	%edx, 2312(%ebx)
	movl	%eax, 2472(%ebx)
	subl	$4, %esp
	pushl	%esi
	pushl	%eax
	pushl	%ebx
	calll	__remill_error
	addl	$16, %esp
	movl	$0, 2216(%ebx)
	movl	2120(%ebx), %ecx
	movl	2328(%ebx), %edx
	movl	-8(%ecx,%edx), %esi
	movl	%esi, 2248(%ebx)
	movl	-4(%ecx,%edx), %edi
	movl	%edi, 2232(%ebx)
	movl	(%ecx,%edx), %edx
	movl	%edx, 2328(%ebx)
	movl	-4(%esi,%ecx), %ecx
	movl	%ecx, 2472(%ebx)
	movl	%esi, 2312(%ebx)
	addl	$28, %esp
	popl	%esi
	popl	%edi
	popl	%ebx
	popl	%ebp
	.cfi_def_cfa %esp, 4
	retl
.Lfunc_end21:
	.size	sub_58d_main, .Lfunc_end21-sub_58d_main
	.cfi_endproc
                                        # -- End function
	.globl	sub_3f0                 # -- Begin function sub_3f0
	.p2align	4, 0x90
	.type	sub_3f0,@function
sub_3f0:                                # @sub_3f0
.Lsub_3f0$local:
.Lfunc_begin22:
	.cfi_startproc
# %bb.0:                                # %block_3f0
	pushl	%ebp
	.cfi_def_cfa_offset 8
	.cfi_offset %ebp, -8
	movl	%esp, %ebp
	.cfi_def_cfa_register %ebp
	pushl	%edi
	pushl	%esi
	.cfi_offset %esi, -16
	.cfi_offset %edi, -12
	movl	8(%ebp), %eax
	movl	2120(%eax), %ecx
	movl	2232(%eax), %edx
	movl	4(%edx), %esi
	movl	2312(%eax), %edi
	movl	%esi, -4(%ecx,%edi)
	addl	$-4, %edi
	movl	%edi, 2312(%eax)
	movl	16(%ebp), %ecx
	movl	8(%edx), %edx
	movl	%edx, 2472(%eax)
	subl	$4, %esp
	cmpl	$1020, %edx             # imm = 0x3FC
	jne	.LBB22_3
# %bb.1:                                # %block_3fc
	pushl	%ecx
	pushl	$1020                   # imm = 0x3FC
	pushl	%eax
	calll	__remill_error
	jmp	.LBB22_2
.LBB22_3:
	pushl	%ecx
	pushl	%edx
	pushl	%eax
	calll	__remill_jump
.LBB22_2:                               # %block_3fc
	addl	$16, %esp
	popl	%esi
	popl	%edi
	popl	%ebp
	.cfi_def_cfa %esp, 4
	retl
.Lfunc_end22:
	.size	sub_3f0, .Lfunc_end22-sub_3f0
	.cfi_endproc
                                        # -- End function
	.globl	main                    # -- Begin function main
	.p2align	4, 0x90
	.type	main,@function
main:                                   # @main
.Lmain$local:
.Lfunc_begin23:
	.cfi_startproc
# %bb.0:
	#APP
	pushl	__unnamed_1
	pushl	$1421                   # imm = 0x58D
	jmpl	*__unnamed_2

	#NO_APP
	retl
.Lfunc_end23:
	.size	main, .Lfunc_end23-main
	.cfi_endproc
                                        # -- End function
	.p2align	4, 0x90         # -- Begin function main_wrapper
	.type	main_wrapper,@function
main_wrapper:                           # @main_wrapper
.Lfunc_begin24:
	.cfi_startproc
# %bb.0:
	cmpb	$0, __unnamed_3
	jne	.LBB24_2
# %bb.1:
	movb	$1, __unnamed_3
.LBB24_2:                               # %__mcsema_early_init.exit
	jmp	.Lsub_58d_main$local    # TAILCALL
.Lfunc_end24:
	.size	main_wrapper, .Lfunc_end24-main_wrapper
	.cfi_endproc
                                        # -- End function
	.p2align	4, 0x90         # -- Begin function ext_2010_mprotect
	.type	ext_2010_mprotect,@function
ext_2010_mprotect:                      # @ext_2010_mprotect
.Lfunc_begin25:
	.cfi_startproc
# %bb.0:
	subl	$16, %esp
	.cfi_adjust_cfa_offset 16
	pushl	%edx
	.cfi_adjust_cfa_offset 4
	pushl	$mprotect
	.cfi_adjust_cfa_offset 4
	pushl	%ecx
	.cfi_adjust_cfa_offset 4
	calll	__remill_function_call
	addl	$28, %esp
	.cfi_adjust_cfa_offset -28
	retl
.Lfunc_end25:
	.size	ext_2010_mprotect, .Lfunc_end25-ext_2010_mprotect
	.cfi_endproc
                                        # -- End function
	.p2align	4, 0x90         # -- Begin function ext_2014_printf
	.type	ext_2014_printf,@function
ext_2014_printf:                        # @ext_2014_printf
.Lfunc_begin26:
	.cfi_startproc
# %bb.0:
	subl	$16, %esp
	.cfi_adjust_cfa_offset 16
	pushl	%edx
	.cfi_adjust_cfa_offset 4
	pushl	$printf
	.cfi_adjust_cfa_offset 4
	pushl	%ecx
	.cfi_adjust_cfa_offset 4
	calll	__remill_function_call
	addl	$28, %esp
	.cfi_adjust_cfa_offset -28
	retl
.Lfunc_end26:
	.size	ext_2014_printf, .Lfunc_end26-ext_2014_printf
	.cfi_endproc
                                        # -- End function
	.p2align	4, 0x90         # -- Begin function ext_201c___libc_start_main
	.type	ext_201c___libc_start_main,@function
ext_201c___libc_start_main:             # @ext_201c___libc_start_main
.Lfunc_begin27:
	.cfi_startproc
# %bb.0:
	subl	$16, %esp
	.cfi_adjust_cfa_offset 16
	pushl	%edx
	.cfi_adjust_cfa_offset 4
	pushl	$__libc_start_main
	.cfi_adjust_cfa_offset 4
	pushl	%ecx
	.cfi_adjust_cfa_offset 4
	calll	__remill_function_call
	addl	$28, %esp
	.cfi_adjust_cfa_offset -28
	retl
.Lfunc_end27:
	.size	ext_201c___libc_start_main, .Lfunc_end27-ext_201c___libc_start_main
	.cfi_endproc
                                        # -- End function
	.p2align	4, 0x90         # -- Begin function ext_2020_write
	.type	ext_2020_write,@function
ext_2020_write:                         # @ext_2020_write
.Lfunc_begin28:
	.cfi_startproc
# %bb.0:
	subl	$16, %esp
	.cfi_adjust_cfa_offset 16
	pushl	%edx
	.cfi_adjust_cfa_offset 4
	pushl	$write
	.cfi_adjust_cfa_offset 4
	pushl	%ecx
	.cfi_adjust_cfa_offset 4
	calll	__remill_function_call
	addl	$28, %esp
	.cfi_adjust_cfa_offset -28
	retl
.Lfunc_end28:
	.size	ext_2020_write, .Lfunc_end28-ext_2020_write
	.cfi_endproc
                                        # -- End function
	.globl	__x86.get_pc_thunk.bx   # -- Begin function __x86.get_pc_thunk.bx
	.p2align	4, 0x90
	.type	__x86.get_pc_thunk.bx,@function
__x86.get_pc_thunk.bx:                  # @__x86.get_pc_thunk.bx
.L__x86.get_pc_thunk.bx$local:
.Lfunc_begin29:
	.cfi_startproc
# %bb.0:
	#APP
	pushl	__unnamed_4
	pushl	$1168                   # imm = 0x490
	jmpl	*__unnamed_2

	#NO_APP
	retl
.Lfunc_end29:
	.size	__x86.get_pc_thunk.bx, .Lfunc_end29-__x86.get_pc_thunk.bx
	.cfi_endproc
                                        # -- End function
	.p2align	4, 0x90         # -- Begin function __x86.get_pc_thunk.bx_wrapper
	.type	__x86.get_pc_thunk.bx_wrapper,@function
__x86.get_pc_thunk.bx_wrapper:          # @__x86.get_pc_thunk.bx_wrapper
.Lfunc_begin30:
	.cfi_startproc
# %bb.0:
	cmpb	$0, __unnamed_3
	jne	.LBB30_2
# %bb.1:
	movb	$1, __unnamed_3
.LBB30_2:                               # %__mcsema_early_init.exit
	jmp	.Lsub_490___x86_get_pc_thunk_bx$local # TAILCALL
.Lfunc_end30:
	.size	__x86.get_pc_thunk.bx_wrapper, .Lfunc_end30-__x86.get_pc_thunk.bx_wrapper
	.cfi_endproc
                                        # -- End function
	.globl	.init_proc              # -- Begin function .init_proc
	.p2align	4, 0x90
	.type	.init_proc,@function
.init_proc:                             # @.init_proc
.L.init_proc$local:
.Lfunc_begin31:
	.cfi_startproc
# %bb.0:
	#APP
	pushl	__unnamed_5
	pushl	$972                    # imm = 0x3CC
	jmpl	*__unnamed_2

	#NO_APP
	retl
.Lfunc_end31:
	.size	.init_proc, .Lfunc_end31-.init_proc
	.cfi_endproc
                                        # -- End function
	.p2align	4, 0x90         # -- Begin function .init_proc_wrapper
	.type	.init_proc_wrapper,@function
.init_proc_wrapper:                     # @.init_proc_wrapper
.Lfunc_begin32:
	.cfi_startproc
# %bb.0:
	cmpb	$0, __unnamed_3
	jne	.LBB32_2
# %bb.1:
	movb	$1, __unnamed_3
.LBB32_2:                               # %__mcsema_early_init.exit
	jmp	.Lsub_3cc__init_proc$local # TAILCALL
.Lfunc_end32:
	.size	.init_proc_wrapper, .Lfunc_end32-.init_proc_wrapper
	.cfi_endproc
                                        # -- End function
	.globl	__x86.get_pc_thunk.dx   # -- Begin function __x86.get_pc_thunk.dx
	.p2align	4, 0x90
	.type	__x86.get_pc_thunk.dx,@function
__x86.get_pc_thunk.dx:                  # @__x86.get_pc_thunk.dx
.L__x86.get_pc_thunk.dx$local:
.Lfunc_begin33:
	.cfi_startproc
# %bb.0:
	#APP
	pushl	__unnamed_6
	pushl	$1417                   # imm = 0x589
	jmpl	*__unnamed_2

	#NO_APP
	retl
.Lfunc_end33:
	.size	__x86.get_pc_thunk.dx, .Lfunc_end33-__x86.get_pc_thunk.dx
	.cfi_endproc
                                        # -- End function
	.p2align	4, 0x90         # -- Begin function __x86.get_pc_thunk.dx_wrapper
	.type	__x86.get_pc_thunk.dx_wrapper,@function
__x86.get_pc_thunk.dx_wrapper:          # @__x86.get_pc_thunk.dx_wrapper
.Lfunc_begin34:
	.cfi_startproc
# %bb.0:
	cmpb	$0, __unnamed_3
	jne	.LBB34_2
# %bb.1:
	movb	$1, __unnamed_3
.LBB34_2:                               # %__mcsema_early_init.exit
	jmp	.Lsub_589___x86_get_pc_thunk_dx$local # TAILCALL
.Lfunc_end34:
	.size	__x86.get_pc_thunk.dx_wrapper, .Lfunc_end34-__x86.get_pc_thunk.dx_wrapper
	.cfi_endproc
                                        # -- End function
	.globl	.term_proc              # -- Begin function .term_proc
	.p2align	4, 0x90
	.type	.term_proc,@function
.term_proc:                             # @.term_proc
.L.term_proc$local:
.Lfunc_begin35:
	.cfi_startproc
# %bb.0:
	#APP
	pushl	__unnamed_7
	pushl	$1812                   # imm = 0x714
	jmpl	*__unnamed_2

	#NO_APP
	retl
.Lfunc_end35:
	.size	.term_proc, .Lfunc_end35-.term_proc
	.cfi_endproc
                                        # -- End function
	.p2align	4, 0x90         # -- Begin function .term_proc_wrapper
	.type	.term_proc_wrapper,@function
.term_proc_wrapper:                     # @.term_proc_wrapper
.Lfunc_begin36:
	.cfi_startproc
# %bb.0:
	cmpb	$0, __unnamed_3
	jne	.LBB36_2
# %bb.1:
	movb	$1, __unnamed_3
.LBB36_2:                               # %__mcsema_early_init.exit
	jmp	.Lsub_714__term_proc$local # TAILCALL
.Lfunc_end36:
	.size	.term_proc_wrapper, .Lfunc_end36-.term_proc_wrapper
	.cfi_endproc
                                        # -- End function
	.globl	change_page_permissions_of_address # -- Begin function change_page_permissions_of_address
	.p2align	4, 0x90
	.type	change_page_permissions_of_address,@function
change_page_permissions_of_address:     # @change_page_permissions_of_address
.Lchange_page_permissions_of_address$local:
.Lfunc_begin37:
	.cfi_startproc
# %bb.0:
	#APP
	pushl	__unnamed_8
	pushl	$1609                   # imm = 0x649
	jmpl	*__unnamed_2

	#NO_APP
	retl
.Lfunc_end37:
	.size	change_page_permissions_of_address, .Lfunc_end37-change_page_permissions_of_address
	.cfi_endproc
                                        # -- End function
	.p2align	4, 0x90         # -- Begin function change_page_permissions_of_address_wrapper
	.type	change_page_permissions_of_address_wrapper,@function
change_page_permissions_of_address_wrapper: # @change_page_permissions_of_address_wrapper
.Lfunc_begin38:
	.cfi_startproc
# %bb.0:
	cmpb	$0, __unnamed_3
	jne	.LBB38_2
# %bb.1:
	movb	$1, __unnamed_3
.LBB38_2:                               # %__mcsema_early_init.exit
	jmp	.Lsub_649_change_page_permissions_of_address$local # TAILCALL
.Lfunc_end38:
	.size	change_page_permissions_of_address_wrapper, .Lfunc_end38-change_page_permissions_of_address_wrapper
	.cfi_endproc
                                        # -- End function
	.globl	__x86.get_pc_thunk.ax   # -- Begin function __x86.get_pc_thunk.ax
	.p2align	4, 0x90
	.type	__x86.get_pc_thunk.ax,@function
__x86.get_pc_thunk.ax:                  # @__x86.get_pc_thunk.ax
.L__x86.get_pc_thunk.ax$local:
.Lfunc_begin39:
	.cfi_startproc
# %bb.0:
	#APP
	pushl	__unnamed_9
	pushl	$1698                   # imm = 0x6A2
	jmpl	*__unnamed_2

	#NO_APP
	retl
.Lfunc_end39:
	.size	__x86.get_pc_thunk.ax, .Lfunc_end39-__x86.get_pc_thunk.ax
	.cfi_endproc
                                        # -- End function
	.p2align	4, 0x90         # -- Begin function __x86.get_pc_thunk.ax_wrapper
	.type	__x86.get_pc_thunk.ax_wrapper,@function
__x86.get_pc_thunk.ax_wrapper:          # @__x86.get_pc_thunk.ax_wrapper
.Lfunc_begin40:
	.cfi_startproc
# %bb.0:
	cmpb	$0, __unnamed_3
	jne	.LBB40_2
# %bb.1:
	movb	$1, __unnamed_3
.LBB40_2:                               # %__mcsema_early_init.exit
	jmp	.Lsub_6a2___x86_get_pc_thunk_ax$local # TAILCALL
.Lfunc_end40:
	.size	__x86.get_pc_thunk.ax_wrapper, .Lfunc_end40-__x86.get_pc_thunk.ax_wrapper
	.cfi_endproc
                                        # -- End function
	.globl	__x86.get_pc_thunk.cx   # -- Begin function __x86.get_pc_thunk.cx
	.p2align	4, 0x90
	.type	__x86.get_pc_thunk.cx,@function
__x86.get_pc_thunk.cx:                  # @__x86.get_pc_thunk.cx
.L__x86.get_pc_thunk.cx$local:
.Lfunc_begin41:
	.cfi_startproc
# %bb.0:
	#APP
	pushl	__unnamed_10
	pushl	$1702                   # imm = 0x6A6
	jmpl	*__unnamed_2

	#NO_APP
	retl
.Lfunc_end41:
	.size	__x86.get_pc_thunk.cx, .Lfunc_end41-__x86.get_pc_thunk.cx
	.cfi_endproc
                                        # -- End function
	.p2align	4, 0x90         # -- Begin function __x86.get_pc_thunk.cx_wrapper
	.type	__x86.get_pc_thunk.cx_wrapper,@function
__x86.get_pc_thunk.cx_wrapper:          # @__x86.get_pc_thunk.cx_wrapper
.Lfunc_begin42:
	.cfi_startproc
# %bb.0:
	cmpb	$0, __unnamed_3
	jne	.LBB42_2
# %bb.1:
	movb	$1, __unnamed_3
.LBB42_2:                               # %__mcsema_early_init.exit
	jmp	.Lsub_6a6___x86_get_pc_thunk_cx$local # TAILCALL
.Lfunc_end42:
	.size	__x86.get_pc_thunk.cx_wrapper, .Lfunc_end42-__x86.get_pc_thunk.cx_wrapper
	.cfi_endproc
                                        # -- End function
	.p2align	4, 0x90         # -- Begin function callback_sub_710___libc_csu_fini
	.type	callback_sub_710___libc_csu_fini,@function
callback_sub_710___libc_csu_fini:       # @callback_sub_710___libc_csu_fini
.Lfunc_begin43:
	.cfi_startproc
# %bb.0:
	#APP
	pushl	__unnamed_11
	pushl	$1808                   # imm = 0x710
	jmpl	*__unnamed_2

	#NO_APP
	retl
.Lfunc_end43:
	.size	callback_sub_710___libc_csu_fini, .Lfunc_end43-callback_sub_710___libc_csu_fini
	.cfi_endproc
                                        # -- End function
	.p2align	4, 0x90         # -- Begin function callback_sub_710___libc_csu_fini_wrapper
	.type	callback_sub_710___libc_csu_fini_wrapper,@function
callback_sub_710___libc_csu_fini_wrapper: # @callback_sub_710___libc_csu_fini_wrapper
.Lfunc_begin44:
	.cfi_startproc
# %bb.0:
	cmpb	$0, __unnamed_3
	jne	.LBB44_2
# %bb.1:
	movb	$1, __unnamed_3
.LBB44_2:                               # %__mcsema_early_init.exit
	jmp	.Lsub_710___libc_csu_fini$local # TAILCALL
.Lfunc_end44:
	.size	callback_sub_710___libc_csu_fini_wrapper, .Lfunc_end44-callback_sub_710___libc_csu_fini_wrapper
	.cfi_endproc
                                        # -- End function
	.p2align	4, 0x90         # -- Begin function __mcsema_destructor
	.type	__mcsema_destructor,@function
__mcsema_destructor:                    # @__mcsema_destructor
.Lfunc_begin45:
	.cfi_startproc
# %bb.0:
	jmp	callback_sub_710___libc_csu_fini # TAILCALL
.Lfunc_end45:
	.size	__mcsema_destructor, .Lfunc_end45-__mcsema_destructor
	.cfi_endproc
                                        # -- End function
	.p2align	4, 0x90         # -- Begin function callback_sub_6b0___libc_csu_init
	.type	callback_sub_6b0___libc_csu_init,@function
callback_sub_6b0___libc_csu_init:       # @callback_sub_6b0___libc_csu_init
.Lfunc_begin46:
	.cfi_startproc
# %bb.0:
	#APP
	pushl	__unnamed_12
	pushl	$1712                   # imm = 0x6B0
	jmpl	*__unnamed_2

	#NO_APP
	retl
.Lfunc_end46:
	.size	callback_sub_6b0___libc_csu_init, .Lfunc_end46-callback_sub_6b0___libc_csu_init
	.cfi_endproc
                                        # -- End function
	.p2align	4, 0x90         # -- Begin function callback_sub_6b0___libc_csu_init_wrapper
	.type	callback_sub_6b0___libc_csu_init_wrapper,@function
callback_sub_6b0___libc_csu_init_wrapper: # @callback_sub_6b0___libc_csu_init_wrapper
.Lfunc_begin47:
	.cfi_startproc
# %bb.0:
	cmpb	$0, __unnamed_3
	jne	.LBB47_2
# %bb.1:
	movb	$1, __unnamed_3
.LBB47_2:                               # %__mcsema_early_init.exit
	jmp	.Lsub_6b0___libc_csu_init$local # TAILCALL
.Lfunc_end47:
	.size	callback_sub_6b0___libc_csu_init_wrapper, .Lfunc_end47-callback_sub_6b0___libc_csu_init_wrapper
	.cfi_endproc
                                        # -- End function
	.p2align	4, 0x90         # -- Begin function __mcsema_constructor
	.type	__mcsema_constructor,@function
__mcsema_constructor:                   # @__mcsema_constructor
.Lfunc_begin48:
	.cfi_startproc
# %bb.0:
	cmpb	$0, __unnamed_3
	jne	.LBB48_2
# %bb.1:
	movb	$1, __unnamed_3
.LBB48_2:                               # %__mcsema_early_init.exit
	jmp	callback_sub_6b0___libc_csu_init # TAILCALL
.Lfunc_end48:
	.size	__mcsema_constructor, .Lfunc_end48-__mcsema_constructor
	.cfi_endproc
                                        # -- End function
	.type	_fp_hw,@object          # @_fp_hw
	.section	.rodata,"a",@progbits
	.globl	_fp_hw
	.p2align	4
_fp_hw:
.L_fp_hw$local:
	.asciz	"\003\000\000\000\001\000\002"
	.asciz	"Error!\000Testing\n\000"
	.size	_fp_hw, 25

	.type	seg_1fd0__got,@object   # @seg_1fd0__got
	.data
	.p2align	4
seg_1fd0__got:
	.asciz	"\320\036\000\000\000\000\000\000\000\000\000"
	.long	mprotect
	.long	printf
	.long	__libc_start_main
	.long	write
	.long	_ITM_deregisterTMCloneTable
	.long	__cxa_finalize
	.long	__gmon_start__
	.long	main
	.long	_ITM_registerTMCloneTable
	.size	seg_1fd0__got, 48

	.type	__bss_start,@object     # @__bss_start
	.bss
	.globl	__bss_start
	.p2align	3
__bss_start:
.L__bss_start$local:
	.zero	4
	.size	__bss_start, 4

	.type	__unnamed_3,@object     # @0
	.local	__unnamed_3
	.comm	__unnamed_3,1,1
	.type	__unnamed_2,@object     # @1
	.section	.rodata,"a",@progbits
	.p2align	2
__unnamed_2:
	.long	__mcsema_attach_call
	.size	__unnamed_2, 4

	.type	__unnamed_1,@object     # @2
	.p2align	2
__unnamed_1:
	.long	main_wrapper
	.size	__unnamed_1, 4

	.type	__unnamed_4,@object     # @3
	.p2align	2
__unnamed_4:
	.long	__x86.get_pc_thunk.bx_wrapper
	.size	__unnamed_4, 4

	.type	__unnamed_5,@object     # @4
	.p2align	2
__unnamed_5:
	.long	.init_proc_wrapper
	.size	__unnamed_5, 4

	.type	__unnamed_6,@object     # @5
	.p2align	2
__unnamed_6:
	.long	__x86.get_pc_thunk.dx_wrapper
	.size	__unnamed_6, 4

	.type	__unnamed_7,@object     # @6
	.p2align	2
__unnamed_7:
	.long	.term_proc_wrapper
	.size	__unnamed_7, 4

	.type	__unnamed_8,@object     # @7
	.p2align	2
__unnamed_8:
	.long	change_page_permissions_of_address_wrapper
	.size	__unnamed_8, 4

	.type	__unnamed_9,@object     # @8
	.p2align	2
__unnamed_9:
	.long	__x86.get_pc_thunk.ax_wrapper
	.size	__unnamed_9, 4

	.type	__unnamed_10,@object    # @9
	.p2align	2
__unnamed_10:
	.long	__x86.get_pc_thunk.cx_wrapper
	.size	__unnamed_10, 4

	.type	__unnamed_11,@object    # @10
	.p2align	2
__unnamed_11:
	.long	callback_sub_710___libc_csu_fini_wrapper
	.size	__unnamed_11, 4

	.section	.fini_array.101,"aw",@fini_array
	.p2align	2
	.long	__mcsema_destructor
	.type	__unnamed_12,@object    # @11
	.section	.rodata,"a",@progbits
	.p2align	2
__unnamed_12:
	.long	callback_sub_6b0___libc_csu_init_wrapper
	.size	__unnamed_12, 4

	.section	.init_array.101,"aw",@init_array
	.p2align	2
	.long	__mcsema_constructor
	.section	".note.GNU-stack","",@progbits